Archive member included to satisfy reference by file (symbol)

F:\Dropbox\Hardware Development\MCUXpresso\11.0.1\workspace\speakEZ\libs\libarm_cortexM7lfsp_math.a(arm_sin_f32.o)
                              ./source/speakEZ.o (arm_sin_f32)
F:\Dropbox\Hardware Development\MCUXpresso\11.0.1\workspace\speakEZ\libs\libarm_cortexM7lfsp_math.a(arm_cos_f32.o)
                              ./source/speakEZ.o (arm_cos_f32)
F:\Dropbox\Hardware Development\MCUXpresso\11.0.1\workspace\speakEZ\libs\libarm_cortexM7lfsp_math.a(arm_common_tables.o)
                              F:\Dropbox\Hardware Development\MCUXpresso\11.0.1\workspace\speakEZ\libs\libarm_cortexM7lfsp_math.a(arm_sin_f32.o) (sinTable_f32)
c:/nxp/mcuxpressoide_11.0.1_2563/ide/plugins/com.nxp.mcuxpresso.tools.win32_11.0.1.201907311258/tools/bin/../lib/gcc/arm-none-eabi/8.2.1/../../../../arm-none-eabi/lib/thumb/v7e-m+fp/hard\libcr_semihost_nf.a(_cr__main.o)
                              ./startup/startup_mimxrt1011.o (__main)
c:/nxp/mcuxpressoide_11.0.1_2563/ide/plugins/com.nxp.mcuxpresso.tools.win32_11.0.1.201907311258/tools/bin/../lib/gcc/arm-none-eabi/8.2.1/../../../../arm-none-eabi/lib/thumb/v7e-m+fp/hard\libcr_c.a(fabsf.o)
                              ./source/speakEZ.o (fabsf)
c:/nxp/mcuxpressoide_11.0.1_2563/ide/plugins/com.nxp.mcuxpresso.tools.win32_11.0.1.201907311258/tools/bin/../lib/gcc/arm-none-eabi/8.2.1/../../../../arm-none-eabi/lib/thumb/v7e-m+fp/hard\libcr_c.a(logf.o)
                              ./source/speakEZ.o (logf)
c:/nxp/mcuxpressoide_11.0.1_2563/ide/plugins/com.nxp.mcuxpresso.tools.win32_11.0.1.201907311258/tools/bin/../lib/gcc/arm-none-eabi/8.2.1/../../../../arm-none-eabi/lib/thumb/v7e-m+fp/hard\libcr_c.a(powf.o)
                              ./source/speakEZ.o (powf)
c:/nxp/mcuxpressoide_11.0.1_2563/ide/plugins/com.nxp.mcuxpresso.tools.win32_11.0.1.201907311258/tools/bin/../lib/gcc/arm-none-eabi/8.2.1/../../../../arm-none-eabi/lib/thumb/v7e-m+fp/hard\libcr_c.a(sinhf.o)
                              ./source/speakEZ.o (sinhf)
c:/nxp/mcuxpressoide_11.0.1_2563/ide/plugins/com.nxp.mcuxpresso.tools.win32_11.0.1.201907311258/tools/bin/../lib/gcc/arm-none-eabi/8.2.1/../../../../arm-none-eabi/lib/thumb/v7e-m+fp/hard\libcr_c.a(memcpy.o)
                              ./codec/fsl_wm8960.o (memcpy)
c:/nxp/mcuxpressoide_11.0.1_2563/ide/plugins/com.nxp.mcuxpresso.tools.win32_11.0.1.201907311258/tools/bin/../lib/gcc/arm-none-eabi/8.2.1/../../../../arm-none-eabi/lib/thumb/v7e-m+fp/hard\libcr_c.a(memset.o)
                              ./utilities/fsl_debug_console.o (memset)
c:/nxp/mcuxpressoide_11.0.1_2563/ide/plugins/com.nxp.mcuxpresso.tools.win32_11.0.1.201907311258/tools/bin/../lib/gcc/arm-none-eabi/8.2.1/../../../../arm-none-eabi/lib/thumb/v7e-m+fp/hard\libcr_c.a(alloc.o)
                              ./osa/usb_osa_bm.o (malloc)
c:/nxp/mcuxpressoide_11.0.1_2563/ide/plugins/com.nxp.mcuxpresso.tools.win32_11.0.1.201907311258/tools/bin/../lib/gcc/arm-none-eabi/8.2.1/../../../../arm-none-eabi/lib/thumb/v7e-m+fp/hard\libcr_c.a(errno.o)
                              c:/nxp/mcuxpressoide_11.0.1_2563/ide/plugins/com.nxp.mcuxpresso.tools.win32_11.0.1.201907311258/tools/bin/../lib/gcc/arm-none-eabi/8.2.1/../../../../arm-none-eabi/lib/thumb/v7e-m+fp/hard\libcr_c.a(logf.o) (errno)
c:/nxp/mcuxpressoide_11.0.1_2563/ide/plugins/com.nxp.mcuxpresso.tools.win32_11.0.1.201907311258/tools/bin/../lib/gcc/arm-none-eabi/8.2.1/../../../../arm-none-eabi/lib/thumb/v7e-m+fp/hard\libcr_c.a(initio.o)
                              c:/nxp/mcuxpressoide_11.0.1_2563/ide/plugins/com.nxp.mcuxpresso.tools.win32_11.0.1.201907311258/tools/bin/../lib/gcc/arm-none-eabi/8.2.1/../../../../arm-none-eabi/lib/thumb/v7e-m+fp/hard\libcr_semihost_nf.a(_cr__main.o) (_initio)
c:/nxp/mcuxpressoide_11.0.1_2563/ide/plugins/com.nxp.mcuxpresso.tools.win32_11.0.1.201907311258/tools/bin/../lib/gcc/arm-none-eabi/8.2.1/../../../../arm-none-eabi/lib/thumb/v7e-m+fp/hard\libcr_c.a(printf.o)
                              ./usb/host/class/usb_host_cdc.o (_printf)
c:/nxp/mcuxpressoide_11.0.1_2563/ide/plugins/com.nxp.mcuxpresso.tools.win32_11.0.1.201907311258/tools/bin/../lib/gcc/arm-none-eabi/8.2.1/../../../../arm-none-eabi/lib/thumb/v7e-m+fp/hard\libcr_c.a(setvbuf.o)
                              c:/nxp/mcuxpressoide_11.0.1_2563/ide/plugins/com.nxp.mcuxpresso.tools.win32_11.0.1.201907311258/tools/bin/../lib/gcc/arm-none-eabi/8.2.1/../../../../arm-none-eabi/lib/thumb/v7e-m+fp/hard\libcr_c.a(initio.o) (setvbuf)
c:/nxp/mcuxpressoide_11.0.1_2563/ide/plugins/com.nxp.mcuxpresso.tools.win32_11.0.1.201907311258/tools/bin/../lib/gcc/arm-none-eabi/8.2.1/../../../../arm-none-eabi/lib/thumb/v7e-m+fp/hard\libcr_c.a(strlen.o)
                              ./utilities/fsl_str.o (strlen)
c:/nxp/mcuxpressoide_11.0.1_2563/ide/plugins/com.nxp.mcuxpresso.tools.win32_11.0.1.201907311258/tools/bin/../lib/gcc/arm-none-eabi/8.2.1/../../../../arm-none-eabi/lib/thumb/v7e-m+fp/hard\libcr_c.a(expf.o)
                              c:/nxp/mcuxpressoide_11.0.1_2563/ide/plugins/com.nxp.mcuxpresso.tools.win32_11.0.1.201907311258/tools/bin/../lib/gcc/arm-none-eabi/8.2.1/../../../../arm-none-eabi/lib/thumb/v7e-m+fp/hard\libcr_c.a(sinhf.o) (expf)
c:/nxp/mcuxpressoide_11.0.1_2563/ide/plugins/com.nxp.mcuxpresso.tools.win32_11.0.1.201907311258/tools/bin/../lib/gcc/arm-none-eabi/8.2.1/../../../../arm-none-eabi/lib/thumb/v7e-m+fp/hard\libcr_c.a(frexpf.o)
                              c:/nxp/mcuxpressoide_11.0.1_2563/ide/plugins/com.nxp.mcuxpresso.tools.win32_11.0.1.201907311258/tools/bin/../lib/gcc/arm-none-eabi/8.2.1/../../../../arm-none-eabi/lib/thumb/v7e-m+fp/hard\libcr_c.a(logf.o) (frexpf)
c:/nxp/mcuxpressoide_11.0.1_2563/ide/plugins/com.nxp.mcuxpresso.tools.win32_11.0.1.201907311258/tools/bin/../lib/gcc/arm-none-eabi/8.2.1/../../../../arm-none-eabi/lib/thumb/v7e-m+fp/hard\libcr_c.a(ldexpf.o)
                              c:/nxp/mcuxpressoide_11.0.1_2563/ide/plugins/com.nxp.mcuxpresso.tools.win32_11.0.1.201907311258/tools/bin/../lib/gcc/arm-none-eabi/8.2.1/../../../../arm-none-eabi/lib/thumb/v7e-m+fp/hard\libcr_c.a(powf.o) (ldexpf)
c:/nxp/mcuxpressoide_11.0.1_2563/ide/plugins/com.nxp.mcuxpresso.tools.win32_11.0.1.201907311258/tools/bin/../lib/gcc/arm-none-eabi/8.2.1/../../../../arm-none-eabi/lib/thumb/v7e-m+fp/hard\libcr_c.a(__init_alloc.o)
                              c:/nxp/mcuxpressoide_11.0.1_2563/ide/plugins/com.nxp.mcuxpresso.tools.win32_11.0.1.201907311258/tools/bin/../lib/gcc/arm-none-eabi/8.2.1/../../../../arm-none-eabi/lib/thumb/v7e-m+fp/hard\libcr_c.a(alloc.o) (__heaps)
c:/nxp/mcuxpressoide_11.0.1_2563/ide/plugins/com.nxp.mcuxpresso.tools.win32_11.0.1.201907311258/tools/bin/../lib/gcc/arm-none-eabi/8.2.1/../../../../arm-none-eabi/lib/thumb/v7e-m+fp/hard\libcr_c.a(_cr_sbrk.o)
                              c:/nxp/mcuxpressoide_11.0.1_2563/ide/plugins/com.nxp.mcuxpresso.tools.win32_11.0.1.201907311258/tools/bin/../lib/gcc/arm-none-eabi/8.2.1/../../../../arm-none-eabi/lib/thumb/v7e-m+fp/hard\libcr_c.a(alloc.o) (_sbrk)
c:/nxp/mcuxpressoide_11.0.1_2563/ide/plugins/com.nxp.mcuxpresso.tools.win32_11.0.1.201907311258/tools/bin/../lib/gcc/arm-none-eabi/8.2.1/../../../../arm-none-eabi/lib/thumb/v7e-m+fp/hard\libcr_c.a(_deferredlazyseek.o)
                              c:/nxp/mcuxpressoide_11.0.1_2563/ide/plugins/com.nxp.mcuxpresso.tools.win32_11.0.1.201907311258/tools/bin/../lib/gcc/arm-none-eabi/8.2.1/../../../../arm-none-eabi/lib/thumb/v7e-m+fp/hard\libcr_c.a(printf.o) (__flsbuf)
c:/nxp/mcuxpressoide_11.0.1_2563/ide/plugins/com.nxp.mcuxpresso.tools.win32_11.0.1.201907311258/tools/bin/../lib/gcc/arm-none-eabi/8.2.1/../../../../arm-none-eabi/lib/thumb/v7e-m+fp/hard\libcr_c.a(_fdopen.o)
                              c:/nxp/mcuxpressoide_11.0.1_2563/ide/plugins/com.nxp.mcuxpresso.tools.win32_11.0.1.201907311258/tools/bin/../lib/gcc/arm-none-eabi/8.2.1/../../../../arm-none-eabi/lib/thumb/v7e-m+fp/hard\libcr_c.a(initio.o) (_fdopen)
c:/nxp/mcuxpressoide_11.0.1_2563/ide/plugins/com.nxp.mcuxpresso.tools.win32_11.0.1.201907311258/tools/bin/../lib/gcc/arm-none-eabi/8.2.1/../../../../arm-none-eabi/lib/thumb/v7e-m+fp/hard\libcr_c.a(_fflush.o)
                              c:/nxp/mcuxpressoide_11.0.1_2563/ide/plugins/com.nxp.mcuxpresso.tools.win32_11.0.1.201907311258/tools/bin/../lib/gcc/arm-none-eabi/8.2.1/../../../../arm-none-eabi/lib/thumb/v7e-m+fp/hard\libcr_c.a(_deferredlazyseek.o) (_fflush)
c:/nxp/mcuxpressoide_11.0.1_2563/ide/plugins/com.nxp.mcuxpresso.tools.win32_11.0.1.201907311258/tools/bin/../lib/gcc/arm-none-eabi/8.2.1/../../../../arm-none-eabi/lib/thumb/v7e-m+fp/hard\libcr_c.a(_writebuf.o)
                              c:/nxp/mcuxpressoide_11.0.1_2563/ide/plugins/com.nxp.mcuxpresso.tools.win32_11.0.1.201907311258/tools/bin/../lib/gcc/arm-none-eabi/8.2.1/../../../../arm-none-eabi/lib/thumb/v7e-m+fp/hard\libcr_c.a(_deferredlazyseek.o) (_Cwritebuf)
c:/nxp/mcuxpressoide_11.0.1_2563/ide/plugins/com.nxp.mcuxpresso.tools.win32_11.0.1.201907311258/tools/bin/../lib/gcc/arm-none-eabi/8.2.1/../../../../arm-none-eabi/lib/thumb/v7e-m+fp/hard\libcr_c.a(fclose.o)
                              c:/nxp/mcuxpressoide_11.0.1_2563/ide/plugins/com.nxp.mcuxpresso.tools.win32_11.0.1.201907311258/tools/bin/../lib/gcc/arm-none-eabi/8.2.1/../../../../arm-none-eabi/lib/thumb/v7e-m+fp/hard\libcr_c.a(initio.o) (fclose)
c:/nxp/mcuxpressoide_11.0.1_2563/ide/plugins/com.nxp.mcuxpresso.tools.win32_11.0.1.201907311258/tools/bin/../lib/gcc/arm-none-eabi/8.2.1/../../../../arm-none-eabi/lib/thumb/v7e-m+fp/hard\libcr_c.a(fflush.o)
                              c:/nxp/mcuxpressoide_11.0.1_2563/ide/plugins/com.nxp.mcuxpresso.tools.win32_11.0.1.201907311258/tools/bin/../lib/gcc/arm-none-eabi/8.2.1/../../../../arm-none-eabi/lib/thumb/v7e-m+fp/hard\libcr_c.a(fclose.o) (fflush)
c:/nxp/mcuxpressoide_11.0.1_2563/ide/plugins/com.nxp.mcuxpresso.tools.win32_11.0.1.201907311258/tools/bin/../lib/gcc/arm-none-eabi/8.2.1/../../../../arm-none-eabi/lib/thumb/v7e-m+fp/hard\libcr_c.a(fseek.o)
                              c:/nxp/mcuxpressoide_11.0.1_2563/ide/plugins/com.nxp.mcuxpresso.tools.win32_11.0.1.201907311258/tools/bin/../lib/gcc/arm-none-eabi/8.2.1/../../../../arm-none-eabi/lib/thumb/v7e-m+fp/hard\libcr_c.a(_deferredlazyseek.o) (fseek)
c:/nxp/mcuxpressoide_11.0.1_2563/ide/plugins/com.nxp.mcuxpresso.tools.win32_11.0.1.201907311258/tools/bin/../lib/gcc/arm-none-eabi/8.2.1/../../../../arm-none-eabi/lib/thumb/v7e-m+fp/hard\libcr_c.a(ftell.o)
                              c:/nxp/mcuxpressoide_11.0.1_2563/ide/plugins/com.nxp.mcuxpresso.tools.win32_11.0.1.201907311258/tools/bin/../lib/gcc/arm-none-eabi/8.2.1/../../../../arm-none-eabi/lib/thumb/v7e-m+fp/hard\libcr_c.a(fseek.o) (ftell)
c:/nxp/mcuxpressoide_11.0.1_2563/ide/plugins/com.nxp.mcuxpresso.tools.win32_11.0.1.201907311258/tools/bin/../lib/gcc/arm-none-eabi/8.2.1/../../../../arm-none-eabi/lib/thumb/v7e-m+fp/hard\libcr_c.a(remove.o)
                              c:/nxp/mcuxpressoide_11.0.1_2563/ide/plugins/com.nxp.mcuxpresso.tools.win32_11.0.1.201907311258/tools/bin/../lib/gcc/arm-none-eabi/8.2.1/../../../../arm-none-eabi/lib/thumb/v7e-m+fp/hard\libcr_c.a(fclose.o) (remove)
c:/nxp/mcuxpressoide_11.0.1_2563/ide/plugins/com.nxp.mcuxpresso.tools.win32_11.0.1.201907311258/tools/bin/../lib/gcc/arm-none-eabi/8.2.1/../../../../arm-none-eabi/lib/thumb/v7e-m+fp/hard\libcr_c.a(_cr_check_heap.o)
                              c:/nxp/mcuxpressoide_11.0.1_2563/ide/plugins/com.nxp.mcuxpresso.tools.win32_11.0.1.201907311258/tools/bin/../lib/gcc/arm-none-eabi/8.2.1/../../../../arm-none-eabi/lib/thumb/v7e-m+fp/hard\libcr_c.a(_cr_sbrk.o) (__check_heap_overflow)
c:/nxp/mcuxpressoide_11.0.1_2563/ide/plugins/com.nxp.mcuxpresso.tools.win32_11.0.1.201907311258/tools/bin/../lib/gcc/arm-none-eabi/8.2.1/../../../../arm-none-eabi/lib/thumb/v7e-m+fp/hard\libcr_c.a(_do_fflush.o)
                              c:/nxp/mcuxpressoide_11.0.1_2563/ide/plugins/com.nxp.mcuxpresso.tools.win32_11.0.1.201907311258/tools/bin/../lib/gcc/arm-none-eabi/8.2.1/../../../../arm-none-eabi/lib/thumb/v7e-m+fp/hard\libcr_c.a(fflush.o) (_do_fflush)
c:/nxp/mcuxpressoide_11.0.1_2563/ide/plugins/com.nxp.mcuxpresso.tools.win32_11.0.1.201907311258/tools/bin/../lib/gcc/arm-none-eabi/8.2.1/thumb/v7e-m+fp/hard\libcr_eabihelpers.a(division_64.o)
                              ./device/system_MIMXRT1011.o (__aeabi_ldivmod)
c:/nxp/mcuxpressoide_11.0.1_2563/ide/plugins/com.nxp.mcuxpresso.tools.win32_11.0.1.201907311258/tools/bin/../lib/gcc/arm-none-eabi/8.2.1/thumb/v7e-m+fp/hard\libcr_eabihelpers.a(division_idiv0.o)
                              c:/nxp/mcuxpressoide_11.0.1_2563/ide/plugins/com.nxp.mcuxpresso.tools.win32_11.0.1.201907311258/tools/bin/../lib/gcc/arm-none-eabi/8.2.1/thumb/v7e-m+fp/hard\libcr_eabihelpers.a(division_64.o) (__aeabi_idiv0)
c:/nxp/mcuxpressoide_11.0.1_2563/ide/plugins/com.nxp.mcuxpresso.tools.win32_11.0.1.201907311258/tools/bin/../lib/gcc/arm-none-eabi/8.2.1/thumb/v7e-m+fp/hard\libcr_eabihelpers.a(double.o)
                              ./source/speakEZ.o (__aeabi_dmul)
c:/nxp/mcuxpressoide_11.0.1_2563/ide/plugins/com.nxp.mcuxpresso.tools.win32_11.0.1.201907311258/tools/bin/../lib/gcc/arm-none-eabi/8.2.1/thumb/v7e-m+fp/hard\libcr_eabihelpers.a(float.o)
                              ./source/speakEZ.o (__aeabi_f2d)
c:/nxp/mcuxpressoide_11.0.1_2563/ide/plugins/com.nxp.mcuxpresso.tools.win32_11.0.1.201907311258/tools/bin/../lib/gcc/arm-none-eabi/8.2.1/thumb/v7e-m+fp/hard\libcr_eabihelpers.a(memcpy.o)
                              c:/nxp/mcuxpressoide_11.0.1_2563/ide/plugins/com.nxp.mcuxpresso.tools.win32_11.0.1.201907311258/tools/bin/../lib/gcc/arm-none-eabi/8.2.1/../../../../arm-none-eabi/lib/thumb/v7e-m+fp/hard\libcr_c.a(memcpy.o) (__aeabi_memcpy)
c:/nxp/mcuxpressoide_11.0.1_2563/ide/plugins/com.nxp.mcuxpresso.tools.win32_11.0.1.201907311258/tools/bin/../lib/gcc/arm-none-eabi/8.2.1/../../../../arm-none-eabi/lib/thumb/v7e-m+fp/hard\libcr_semihost_nf.a(__ciob.o)
                              c:/nxp/mcuxpressoide_11.0.1_2563/ide/plugins/com.nxp.mcuxpresso.tools.win32_11.0.1.201907311258/tools/bin/../lib/gcc/arm-none-eabi/8.2.1/../../../../arm-none-eabi/lib/thumb/v7e-m+fp/hard\libcr_c.a(initio.o) (__Ciob)
c:/nxp/mcuxpressoide_11.0.1_2563/ide/plugins/com.nxp.mcuxpresso.tools.win32_11.0.1.201907311258/tools/bin/../lib/gcc/arm-none-eabi/8.2.1/../../../../arm-none-eabi/lib/thumb/v7e-m+fp/hard\libcr_semihost_nf.a(__sys_appexit.o)
                              c:/nxp/mcuxpressoide_11.0.1_2563/ide/plugins/com.nxp.mcuxpresso.tools.win32_11.0.1.201907311258/tools/bin/../lib/gcc/arm-none-eabi/8.2.1/../../../../arm-none-eabi/lib/thumb/v7e-m+fp/hard\libcr_c.a(alloc.o) (__sys_appexit)
c:/nxp/mcuxpressoide_11.0.1_2563/ide/plugins/com.nxp.mcuxpresso.tools.win32_11.0.1.201907311258/tools/bin/../lib/gcc/arm-none-eabi/8.2.1/../../../../arm-none-eabi/lib/thumb/v7e-m+fp/hard\libcr_semihost_nf.a(__sys_close.o)
                              c:/nxp/mcuxpressoide_11.0.1_2563/ide/plugins/com.nxp.mcuxpresso.tools.win32_11.0.1.201907311258/tools/bin/../lib/gcc/arm-none-eabi/8.2.1/../../../../arm-none-eabi/lib/thumb/v7e-m+fp/hard\libcr_c.a(fclose.o) (__sys_close)
c:/nxp/mcuxpressoide_11.0.1_2563/ide/plugins/com.nxp.mcuxpresso.tools.win32_11.0.1.201907311258/tools/bin/../lib/gcc/arm-none-eabi/8.2.1/../../../../arm-none-eabi/lib/thumb/v7e-m+fp/hard\libcr_semihost_nf.a(__sys_flen.o)
                              c:/nxp/mcuxpressoide_11.0.1_2563/ide/plugins/com.nxp.mcuxpresso.tools.win32_11.0.1.201907311258/tools/bin/../lib/gcc/arm-none-eabi/8.2.1/../../../../arm-none-eabi/lib/thumb/v7e-m+fp/hard\libcr_c.a(_writebuf.o) (__sys_flen)
c:/nxp/mcuxpressoide_11.0.1_2563/ide/plugins/com.nxp.mcuxpresso.tools.win32_11.0.1.201907311258/tools/bin/../lib/gcc/arm-none-eabi/8.2.1/../../../../arm-none-eabi/lib/thumb/v7e-m+fp/hard\libcr_semihost_nf.a(__sys_istty.o)
                              c:/nxp/mcuxpressoide_11.0.1_2563/ide/plugins/com.nxp.mcuxpresso.tools.win32_11.0.1.201907311258/tools/bin/../lib/gcc/arm-none-eabi/8.2.1/../../../../arm-none-eabi/lib/thumb/v7e-m+fp/hard\libcr_c.a(_deferredlazyseek.o) (__sys_istty)
c:/nxp/mcuxpressoide_11.0.1_2563/ide/plugins/com.nxp.mcuxpresso.tools.win32_11.0.1.201907311258/tools/bin/../lib/gcc/arm-none-eabi/8.2.1/../../../../arm-none-eabi/lib/thumb/v7e-m+fp/hard\libcr_semihost_nf.a(__sys_remove.o)
                              c:/nxp/mcuxpressoide_11.0.1_2563/ide/plugins/com.nxp.mcuxpresso.tools.win32_11.0.1.201907311258/tools/bin/../lib/gcc/arm-none-eabi/8.2.1/../../../../arm-none-eabi/lib/thumb/v7e-m+fp/hard\libcr_c.a(remove.o) (__sys_remove)
c:/nxp/mcuxpressoide_11.0.1_2563/ide/plugins/com.nxp.mcuxpresso.tools.win32_11.0.1.201907311258/tools/bin/../lib/gcc/arm-none-eabi/8.2.1/../../../../arm-none-eabi/lib/thumb/v7e-m+fp/hard\libcr_semihost_nf.a(__sys_rename.o)
                              c:/nxp/mcuxpressoide_11.0.1_2563/ide/plugins/com.nxp.mcuxpresso.tools.win32_11.0.1.201907311258/tools/bin/../lib/gcc/arm-none-eabi/8.2.1/../../../../arm-none-eabi/lib/thumb/v7e-m+fp/hard\libcr_c.a(remove.o) (__sys_rename)
c:/nxp/mcuxpressoide_11.0.1_2563/ide/plugins/com.nxp.mcuxpresso.tools.win32_11.0.1.201907311258/tools/bin/../lib/gcc/arm-none-eabi/8.2.1/../../../../arm-none-eabi/lib/thumb/v7e-m+fp/hard\libcr_semihost_nf.a(__sys_seek.o)
                              c:/nxp/mcuxpressoide_11.0.1_2563/ide/plugins/com.nxp.mcuxpresso.tools.win32_11.0.1.201907311258/tools/bin/../lib/gcc/arm-none-eabi/8.2.1/../../../../arm-none-eabi/lib/thumb/v7e-m+fp/hard\libcr_c.a(_writebuf.o) (__sys_seek)
c:/nxp/mcuxpressoide_11.0.1_2563/ide/plugins/com.nxp.mcuxpresso.tools.win32_11.0.1.201907311258/tools/bin/../lib/gcc/arm-none-eabi/8.2.1/../../../../arm-none-eabi/lib/thumb/v7e-m+fp/hard\libcr_semihost_nf.a(__sys_tmpnam.o)
                              c:/nxp/mcuxpressoide_11.0.1_2563/ide/plugins/com.nxp.mcuxpresso.tools.win32_11.0.1.201907311258/tools/bin/../lib/gcc/arm-none-eabi/8.2.1/../../../../arm-none-eabi/lib/thumb/v7e-m+fp/hard\libcr_c.a(fclose.o) (__sys_tmpnam)
c:/nxp/mcuxpressoide_11.0.1_2563/ide/plugins/com.nxp.mcuxpresso.tools.win32_11.0.1.201907311258/tools/bin/../lib/gcc/arm-none-eabi/8.2.1/../../../../arm-none-eabi/lib/thumb/v7e-m+fp/hard\libcr_semihost_nf.a(__sys_write.o)
                              c:/nxp/mcuxpressoide_11.0.1_2563/ide/plugins/com.nxp.mcuxpresso.tools.win32_11.0.1.201907311258/tools/bin/../lib/gcc/arm-none-eabi/8.2.1/../../../../arm-none-eabi/lib/thumb/v7e-m+fp/hard\libcr_c.a(alloc.o) (__sys_write)

Discarded input sections

 .text          0x00000000        0x0 ./xip/evkmimxrt1010_flexspi_nor_config.o
 .data          0x00000000        0x0 ./xip/evkmimxrt1010_flexspi_nor_config.o
 .bss           0x00000000        0x0 ./xip/evkmimxrt1010_flexspi_nor_config.o
 .text          0x00000000        0x0 ./xip/fsl_flexspi_nor_boot.o
 .data          0x00000000        0x0 ./xip/fsl_flexspi_nor_boot.o
 .bss           0x00000000        0x0 ./xip/fsl_flexspi_nor_boot.o
 .text          0x00000000        0x0 ./utilities/fsl_debug_console.o
 .data          0x00000000        0x0 ./utilities/fsl_debug_console.o
 .bss           0x00000000        0x0 ./utilities/fsl_debug_console.o
 .text.DbgConsole_ReadOneCharacter
                0x00000000       0x18 ./utilities/fsl_debug_console.o
 .text.DbgConsole_SendData
                0x00000000       0x20 ./utilities/fsl_debug_console.o
 .text.DbgConsole_SendDataReliable
                0x00000000       0x20 ./utilities/fsl_debug_console.o
 .text.DbgConsole_ReadLine
                0x00000000       0x64 ./utilities/fsl_debug_console.o
 .text.DbgConsole_ReadCharacter
                0x00000000       0x1c ./utilities/fsl_debug_console.o
 .text.DbgConsole_Deinit
                0x00000000       0x38 ./utilities/fsl_debug_console.o
 .bss.s_debugConsoleReadWaitSemaphore
                0x00000000        0x1 ./utilities/fsl_debug_console.o
 .text          0x00000000        0x0 ./utilities/fsl_str.o
 .data          0x00000000        0x0 ./utilities/fsl_str.o
 .bss           0x00000000        0x0 ./utilities/fsl_str.o
 .text.StrFormatPrintf
                0x00000000      0x334 ./utilities/fsl_str.o
 .text.StrFormatScanf
                0x00000000      0x3fc ./utilities/fsl_str.o
 .debug_info    0x00000000      0x991 ./utilities/fsl_str.o
 .debug_abbrev  0x00000000      0x28e ./utilities/fsl_str.o
 .debug_loc     0x00000000     0x1782 ./utilities/fsl_str.o
 .debug_aranges
                0x00000000       0x28 ./utilities/fsl_str.o
 .debug_ranges  0x00000000       0xe8 ./utilities/fsl_str.o
 .debug_line    0x00000000      0xb09 ./utilities/fsl_str.o
 .debug_str     0x00000000      0x437 ./utilities/fsl_str.o
 .comment       0x00000000       0x76 ./utilities/fsl_str.o
 .debug_frame   0x00000000       0x70 ./utilities/fsl_str.o
 .ARM.attributes
                0x00000000       0x34 ./utilities/fsl_str.o
 .text          0x00000000        0x0 ./usb/phy/usb_phy.o
 .data          0x00000000        0x0 ./usb/phy/usb_phy.o
 .bss           0x00000000        0x0 ./usb/phy/usb_phy.o
 .text.USB_EhciPhyGetBase
                0x00000000       0x44 ./usb/phy/usb_phy.o
 .text.USB_EhciLowPowerPhyInit
                0x00000000       0xa4 ./usb/phy/usb_phy.o
 .text.USB_EhciPhyDeinit
                0x00000000       0x48 ./usb/phy/usb_phy.o
 .text          0x00000000        0x0 ./usb/host/class/usb_host_cdc.o
 .data          0x00000000        0x0 ./usb/host/class/usb_host_cdc.o
 .bss           0x00000000        0x0 ./usb/host/class/usb_host_cdc.o
 .text.USB_HostCdcDataOutPipeCallback
                0x00000000       0x20 ./usb/host/class/usb_host_cdc.o
 .text.USB_HostCdcInterruptPipeCallback
                0x00000000       0x20 ./usb/host/class/usb_host_cdc.o
 .text.USB_HostCdcControlPipeCallback
                0x00000000       0x20 ./usb/host/class/usb_host_cdc.o
 .text.USB_HostCdcDataSend
                0x00000000       0x54 ./usb/host/class/usb_host_cdc.o
 .text.USB_HostCdcInterruptRecv
                0x00000000       0x8c ./usb/host/class/usb_host_cdc.o
 .text.USB_HostCdcControl
                0x00000000       0x88 ./usb/host/class/usb_host_cdc.o
 .text.USB_HostCdcGetAcmLineCoding
                0x00000000       0x74 ./usb/host/class/usb_host_cdc.o
 .text.USB_HostCdcSetAcmCtrlState
                0x00000000       0x74 ./usb/host/class/usb_host_cdc.o
 .text.USB_HostCdcSendEncapsulatedCommand
                0x00000000       0x68 ./usb/host/class/usb_host_cdc.o
 .text.USB_HostCdcGetEncapsulatedResponse
                0x00000000       0x6c ./usb/host/class/usb_host_cdc.o
 .text.USB_HostCdcGetAcmDescriptor
                0x00000000       0x84 ./usb/host/class/usb_host_cdc.o
 .rodata.USB_HostCdcInterruptRecv.str1.4
                0x00000000       0xe0 ./usb/host/class/usb_host_cdc.o
 .text          0x00000000        0x0 ./usb/host/usb_host_devices.o
 .data          0x00000000        0x0 ./usb/host/usb_host_devices.o
 .bss           0x00000000        0x0 ./usb/host/usb_host_devices.o
 .text.USB_HostGetDeviceAttachState
                0x00000000        0x8 ./usb/host/usb_host_devices.o
 .text.USB_HostValidateDevice
                0x00000000       0x20 ./usb/host/usb_host_devices.o
 .text.USB_HostRemoveDevice
                0x00000000       0xb0 ./usb/host/usb_host_devices.o
 .text          0x00000000        0x0 ./usb/host/usb_host_ehci.o
 .data          0x00000000        0x0 ./usb/host/usb_host_ehci.o
 .bss           0x00000000        0x0 ./usb/host/usb_host_ehci.o
 .text.USB_EhciGetValidFrameList
                0x00000000       0x2c ./usb/host/usb_host_ehci.o
 .text          0x00000000        0x0 ./usb/host/usb_host_framework.o
 .data          0x00000000        0x0 ./usb/host/usb_host_framework.o
 .bss           0x00000000        0x0 ./usb/host/usb_host_framework.o
 .text.USB_HostStandardGetStatus
                0x00000000       0x50 ./usb/host/usb_host_framework.o
 .text.USB_HostStandardSetClearFeature
                0x00000000       0x4c ./usb/host/usb_host_framework.o
 .text.USB_HostStandardGetInterface
                0x00000000       0x3c ./usb/host/usb_host_framework.o
 .text.USB_HostStandardSetInterface
                0x00000000       0x40 ./usb/host/usb_host_framework.o
 .text.USB_HostStandardSyncFrame
                0x00000000       0x3c ./usb/host/usb_host_framework.o
 .text.USB_HostRequestControl
                0x00000000      0x198 ./usb/host/usb_host_framework.o
 .text          0x00000000        0x0 ./usb/host/usb_host_hci.o
 .data          0x00000000        0x0 ./usb/host/usb_host_hci.o
 .bss           0x00000000        0x0 ./usb/host/usb_host_hci.o
 .text.USB_HostDeinit
                0x00000000       0x5c ./usb/host/usb_host_hci.o
 .text.USB_HostSend
                0x00000000       0x44 ./usb/host/usb_host_hci.o
 .text.USB_HostHelperParseAlternateSetting
                0x00000000      0x144 ./usb/host/usb_host_hci.o
 .text.USB_HostGetVersion
                0x00000000        0xc ./usb/host/usb_host_hci.o
 .text          0x00000000        0x0 ./startup/startup_mimxrt1011.o
 .data          0x00000000        0x0 ./startup/startup_mimxrt1011.o
 .bss           0x00000000        0x0 ./startup/startup_mimxrt1011.o
 .after_vectors.init_data
                0x00000000       0x84 ./startup/startup_mimxrt1011.o
 .after_vectors.init_bss
                0x00000000       0x8c ./startup/startup_mimxrt1011.o
 .text.PIT_IRQHandler
                0x00000000        0x8 ./startup/startup_mimxrt1011.o
 .text.USB_OTG1_IRQHandler
                0x00000000        0x8 ./startup/startup_mimxrt1011.o
 .text.SAI1_IRQHandler
                0x00000000        0x8 ./startup/startup_mimxrt1011.o
 .text          0x00000000        0x0 ./source/semihost_hardfault.o
 .data          0x00000000        0x0 ./source/semihost_hardfault.o
 .bss           0x00000000        0x0 ./source/semihost_hardfault.o
 .text          0x00000000        0x0 ./source/speakEZ.o
 .data          0x00000000        0x0 ./source/speakEZ.o
 .bss           0x00000000        0x0 ./source/speakEZ.o
 .text.setTxAudio
                0x00000000       0x34 ./source/speakEZ.o
 .text.getRxAudio
                0x00000000       0x40 ./source/speakEZ.o
 .text.setWavetableSaw
                0x00000000       0x60 ./source/speakEZ.o
 .text.pressKey
                0x00000000       0x14 ./source/speakEZ.o
 .text.releaseKey
                0x00000000       0x14 ./source/speakEZ.o
 .text.updatePitchbend
                0x00000000       0x3c ./source/speakEZ.o
 .text.toggleActiveWavetable
                0x00000000       0x50 ./source/speakEZ.o
 .text.playDemoChord
                0x00000000       0xa8 ./source/speakEZ.o
 .text.toggleDemoChord
                0x00000000      0x168 ./source/speakEZ.o
 .text.getSAI_RequestSynthUpdate
                0x00000000       0x24 ./source/speakEZ.o
 .text.clearSAI_RequestSynthUpdate
                0x00000000       0x24 ./source/speakEZ.o
 .text.runLowpassBiquad
                0x00000000       0x5c ./source/speakEZ.o
 .text.runSibilanceBiquad
                0x00000000       0x5c ./source/speakEZ.o
 .text.runEnvelopeFollower
                0x00000000       0x74 ./source/speakEZ.o
 .text.runShapingBiquad
                0x00000000       0x5c ./source/speakEZ.o
 .text.getSW4Pressed
                0x00000000       0x24 ./source/speakEZ.o
 .text.handleMidiEventPacket
                0x00000000       0x90 ./source/speakEZ.o
 .text          0x00000000        0x0 ./source/usbmidi.o
 .data          0x00000000        0x0 ./source/usbmidi.o
 .bss           0x00000000        0x0 ./source/usbmidi.o
 .text          0x00000000        0x0 ./osa/usb_osa_bm.o
 .data          0x00000000        0x0 ./osa/usb_osa_bm.o
 .bss           0x00000000        0x0 ./osa/usb_osa_bm.o
 .text.USB_OsaEventCheck
                0x00000000       0x34 ./osa/usb_osa_bm.o
 .text.USB_OsaEventClear
                0x00000000       0x20 ./osa/usb_osa_bm.o
 .text.USB_OsaSemCreate
                0x00000000       0x40 ./osa/usb_osa_bm.o
 .text.USB_OsaSemDestroy
                0x00000000       0x1c ./osa/usb_osa_bm.o
 .text.USB_OsaSemPost
                0x00000000       0x1c ./osa/usb_osa_bm.o
 .text.USB_OsaSemWait
                0x00000000       0x28 ./osa/usb_osa_bm.o
 .text.USB_OsaMsgqCreate
                0x00000000       0x58 ./osa/usb_osa_bm.o
 .text.USB_OsaMsgqDestroy
                0x00000000       0x1c ./osa/usb_osa_bm.o
 .text.USB_OsaMsgqSend
                0x00000000       0x78 ./osa/usb_osa_bm.o
 .text.USB_OsaMsgqRecv
                0x00000000       0x70 ./osa/usb_osa_bm.o
 .text.USB_OsaMsgqCheck
                0x00000000       0x80 ./osa/usb_osa_bm.o
 .text          0x00000000        0x0 ./drivers/fsl_clock.o
 .data          0x00000000        0x0 ./drivers/fsl_clock.o
 .bss           0x00000000        0x0 ./drivers/fsl_clock.o
 .text.CLOCK_GetPeriphClkFreq
                0x00000000      0x204 ./drivers/fsl_clock.o
 .text.CLOCK_DeinitExternalClk
                0x00000000       0x10 ./drivers/fsl_clock.o
 .text.CLOCK_DeinitRcOsc24M
                0x00000000       0x14 ./drivers/fsl_clock.o
 .text.CLOCK_GetCoreFreq
                0x00000000      0x210 ./drivers/fsl_clock.o
 .text.CLOCK_GetIpgFreq
                0x00000000       0x28 ./drivers/fsl_clock.o
 .text.CLOCK_GetPerClkFreq
                0x00000000       0x5c ./drivers/fsl_clock.o
 .text.CLOCK_DisableUsbhs0PhyPllClock
                0x00000000       0x20 ./drivers/fsl_clock.o
 .text.CLOCK_DeinitSysPll
                0x00000000       0x10 ./drivers/fsl_clock.o
 .text.CLOCK_InitUsb1Pll
                0x00000000       0x4c ./drivers/fsl_clock.o
 .text.CLOCK_DeinitUsb1Pll
                0x00000000        0xc ./drivers/fsl_clock.o
 .text.CLOCK_InitAudioPll
                0x00000000       0xb4 ./drivers/fsl_clock.o
 .text.CLOCK_DeinitEnetPll
                0x00000000       0x10 ./drivers/fsl_clock.o
 .text.CLOCK_GetFreq
                0x00000000      0x534 ./drivers/fsl_clock.o
 .text.CLOCK_DeinitSysPfd
                0x00000000       0x18 ./drivers/fsl_clock.o
 .text.CLOCK_InitUsb1Pfd
                0x00000000       0x34 ./drivers/fsl_clock.o
 .text.CLOCK_DeinitUsb1Pfd
                0x00000000       0x18 ./drivers/fsl_clock.o
 .text.CLOCK_GetSysPfdFreq
                0x00000000       0xd4 ./drivers/fsl_clock.o
 .text.CLOCK_GetUsb1PfdFreq
                0x00000000       0xbc ./drivers/fsl_clock.o
 .text          0x00000000        0x0 ./drivers/fsl_common.o
 .data          0x00000000        0x0 ./drivers/fsl_common.o
 .bss           0x00000000        0x0 ./drivers/fsl_common.o
 .text.SDK_Malloc
                0x00000000       0x30 ./drivers/fsl_common.o
 .text.SDK_Free
                0x00000000       0x18 ./drivers/fsl_common.o
 .text.SDK_DelayAtLeastUs
                0x00000000       0x20 ./drivers/fsl_common.o
 .debug_info    0x00000000      0x2f1 ./drivers/fsl_common.o
 .debug_abbrev  0x00000000      0x1c8 ./drivers/fsl_common.o
 .debug_loc     0x00000000      0x279 ./drivers/fsl_common.o
 .debug_aranges
                0x00000000       0x30 ./drivers/fsl_common.o
 .debug_ranges  0x00000000       0x38 ./drivers/fsl_common.o
 .debug_line    0x00000000      0x26c ./drivers/fsl_common.o
 .debug_str     0x00000000      0x332 ./drivers/fsl_common.o
 .comment       0x00000000       0x76 ./drivers/fsl_common.o
 .debug_frame   0x00000000       0x54 ./drivers/fsl_common.o
 .ARM.attributes
                0x00000000       0x34 ./drivers/fsl_common.o
 .text          0x00000000        0x0 ./drivers/fsl_dmamux.o
 .data          0x00000000        0x0 ./drivers/fsl_dmamux.o
 .bss           0x00000000        0x0 ./drivers/fsl_dmamux.o
 .text.DMAMUX_Init
                0x00000000       0x10 ./drivers/fsl_dmamux.o
 .text.DMAMUX_Deinit
                0x00000000       0x10 ./drivers/fsl_dmamux.o
 .debug_info    0x00000000      0x79b ./drivers/fsl_dmamux.o
 .debug_abbrev  0x00000000      0x200 ./drivers/fsl_dmamux.o
 .debug_loc     0x00000000      0x118 ./drivers/fsl_dmamux.o
 .debug_aranges
                0x00000000       0x28 ./drivers/fsl_dmamux.o
 .debug_ranges  0x00000000       0x48 ./drivers/fsl_dmamux.o
 .debug_line    0x00000000      0x236 ./drivers/fsl_dmamux.o
 .debug_str     0x00000000      0x7be ./drivers/fsl_dmamux.o
 .comment       0x00000000       0x76 ./drivers/fsl_dmamux.o
 .debug_frame   0x00000000       0x30 ./drivers/fsl_dmamux.o
 .ARM.attributes
                0x00000000       0x34 ./drivers/fsl_dmamux.o
 .text          0x00000000        0x0 ./drivers/fsl_edma.o
 .data          0x00000000        0x0 ./drivers/fsl_edma.o
 .bss           0x00000000        0x0 ./drivers/fsl_edma.o
 .text.EDMA_InstallTCD
                0x00000000       0x74 ./drivers/fsl_edma.o
 .text.EDMA_Init
                0x00000000       0x44 ./drivers/fsl_edma.o
 .text.EDMA_Deinit
                0x00000000       0x10 ./drivers/fsl_edma.o
 .text.EDMA_GetDefaultConfig
                0x00000000       0x14 ./drivers/fsl_edma.o
 .text.EDMA_ResetChannel
                0x00000000       0x28 ./drivers/fsl_edma.o
 .text.EDMA_SetTransferConfig
                0x00000000       0x4c ./drivers/fsl_edma.o
 .text.EDMA_SetMinorOffsetConfig
                0x00000000       0x30 ./drivers/fsl_edma.o
 .text.EDMA_SetChannelPreemptionConfig
                0x00000000       0x34 ./drivers/fsl_edma.o
 .text.EDMA_SetChannelLink
                0x00000000       0x7c ./drivers/fsl_edma.o
 .text.EDMA_SetBandWidth
                0x00000000       0x20 ./drivers/fsl_edma.o
 .text.EDMA_SetModulo
                0x00000000       0x24 ./drivers/fsl_edma.o
 .text.EDMA_EnableChannelInterrupts
                0x00000000       0x3c ./drivers/fsl_edma.o
 .text.EDMA_DisableChannelInterrupts
                0x00000000       0x48 ./drivers/fsl_edma.o
 .text.EDMA_TcdReset
                0x00000000       0x1c ./drivers/fsl_edma.o
 .text.EDMA_TcdSetTransferConfig
                0x00000000       0x44 ./drivers/fsl_edma.o
 .text.EDMA_TcdSetMinorOffsetConfig
                0x00000000       0x28 ./drivers/fsl_edma.o
 .text.EDMA_TcdSetChannelLink
                0x00000000       0x78 ./drivers/fsl_edma.o
 .text.EDMA_TcdSetModulo
                0x00000000       0x20 ./drivers/fsl_edma.o
 .text.EDMA_TcdEnableInterrupts
                0x00000000       0x1c ./drivers/fsl_edma.o
 .text.EDMA_TcdDisableInterrupts
                0x00000000       0x24 ./drivers/fsl_edma.o
 .text.EDMA_GetRemainingMajorLoopCount
                0x00000000       0x28 ./drivers/fsl_edma.o
 .text.EDMA_GetChannelStatusFlags
                0x00000000       0x30 ./drivers/fsl_edma.o
 .text.EDMA_ClearChannelStatusFlags
                0x00000000       0x1c ./drivers/fsl_edma.o
 .text.EDMA_CreateHandle
                0x00000000       0x74 ./drivers/fsl_edma.o
 .text.EDMA_InstallTCDMemory
                0x00000000       0x14 ./drivers/fsl_edma.o
 .text.EDMA_SetCallback
                0x00000000        0x8 ./drivers/fsl_edma.o
 .text.EDMA_PrepareTransfer
                0x00000000       0xf0 ./drivers/fsl_edma.o
 .text.EDMA_SubmitTransfer
                0x00000000      0x238 ./drivers/fsl_edma.o
 .text.EDMA_StartTransfer
                0x00000000       0x50 ./drivers/fsl_edma.o
 .text.EDMA_StopTransfer
                0x00000000       0x14 ./drivers/fsl_edma.o
 .text.EDMA_AbortTransfer
                0x00000000       0x2c ./drivers/fsl_edma.o
 .text.EDMA_HandleIRQ
                0x00000000       0xa0 ./drivers/fsl_edma.o
 .rodata.s_edmaIRQNumber
                0x00000000       0x10 ./drivers/fsl_edma.o
 .text          0x00000000        0x0 ./drivers/fsl_gpio.o
 .data          0x00000000        0x0 ./drivers/fsl_gpio.o
 .bss           0x00000000        0x0 ./drivers/fsl_gpio.o
 .text.GPIO_PinWrite
                0x00000000       0x18 ./drivers/fsl_gpio.o
 .text.GPIO_PinSetInterruptConfig
                0x00000000       0x8c ./drivers/fsl_gpio.o
 .text          0x00000000        0x0 ./drivers/fsl_lpi2c.o
 .data          0x00000000        0x0 ./drivers/fsl_lpi2c.o
 .bss           0x00000000        0x0 ./drivers/fsl_lpi2c.o
 .text.LPI2C_MasterTransferHandleIRQ
                0x00000000      0x1a8 ./drivers/fsl_lpi2c.o
 .text.LPI2C_SlaveTransferHandleIRQ
                0x00000000      0x190 ./drivers/fsl_lpi2c.o
 .text.LPI2C_GetInstance
                0x00000000       0x20 ./drivers/fsl_lpi2c.o
 .text.LPI2C_MasterCheckAndClearError
                0x00000000       0x44 ./drivers/fsl_lpi2c.o
 .text.LPI2C_CheckForBusyBus
                0x00000000       0x14 ./drivers/fsl_lpi2c.o
 .text.LPI2C_MasterGetDefaultConfig
                0x00000000       0x2c ./drivers/fsl_lpi2c.o
 .text.LPI2C_MasterDeinit
                0x00000000       0x48 ./drivers/fsl_lpi2c.o
 .text.LPI2C_MasterConfigureDataMatch
                0x00000000       0x4c ./drivers/fsl_lpi2c.o
 .text.LPI2C_MasterStart
                0x00000000       0x9c ./drivers/fsl_lpi2c.o
 .text.LPI2C_MasterStop
                0x00000000       0xf8 ./drivers/fsl_lpi2c.o
 .text.LPI2C_MasterSend
                0x00000000       0x88 ./drivers/fsl_lpi2c.o
 .text.LPI2C_MasterTransferCreateHandle
                0x00000000       0x88 ./drivers/fsl_lpi2c.o
 .text.LPI2C_MasterTransferNonBlocking
                0x00000000      0x10c ./drivers/fsl_lpi2c.o
 .text.LPI2C_MasterTransferGetCount
                0x00000000       0x4c ./drivers/fsl_lpi2c.o
 .text.LPI2C_MasterTransferAbort
                0x00000000       0x2c ./drivers/fsl_lpi2c.o
 .text.LPI2C_SlaveGetDefaultConfig
                0x00000000       0x28 ./drivers/fsl_lpi2c.o
 .text.LPI2C_SlaveInit
                0x00000000      0x328 ./drivers/fsl_lpi2c.o
 .text.LPI2C_SlaveDeinit
                0x00000000       0x4c ./drivers/fsl_lpi2c.o
 .text.LPI2C_SlaveSend
                0x00000000       0x84 ./drivers/fsl_lpi2c.o
 .text.LPI2C_SlaveReceive
                0x00000000       0x84 ./drivers/fsl_lpi2c.o
 .text.LPI2C_SlaveTransferCreateHandle
                0x00000000       0x98 ./drivers/fsl_lpi2c.o
 .text.LPI2C_SlaveTransferNonBlocking
                0x00000000       0x64 ./drivers/fsl_lpi2c.o
 .text.LPI2C_SlaveTransferGetCount
                0x00000000       0x18 ./drivers/fsl_lpi2c.o
 .text.LPI2C_SlaveTransferAbort
                0x00000000       0x34 ./drivers/fsl_lpi2c.o
 .text          0x00000000        0x0 ./drivers/fsl_lpi2c_edma.o
 .data          0x00000000        0x0 ./drivers/fsl_lpi2c_edma.o
 .bss           0x00000000        0x0 ./drivers/fsl_lpi2c_edma.o
 .text.LPI2C_MasterEDMACallback
                0x00000000       0x38 ./drivers/fsl_lpi2c_edma.o
 .text.LPI2C_MasterCreateEDMAHandle
                0x00000000       0x38 ./drivers/fsl_lpi2c_edma.o
 .text.LPI2C_MasterTransferEDMA
                0x00000000      0x2a8 ./drivers/fsl_lpi2c_edma.o
 .text.LPI2C_MasterTransferGetCountEDMA
                0x00000000       0x58 ./drivers/fsl_lpi2c_edma.o
 .text.LPI2C_MasterTransferAbortEDMA
                0x00000000       0x2c ./drivers/fsl_lpi2c_edma.o
 .bss.tcdSetRxClearTxDMA
                0x00000000       0x20 ./drivers/fsl_lpi2c_edma.o
 .data.lpi2c_edma_RecSetting
                0x00000000        0x4 ./drivers/fsl_lpi2c_edma.o
 .debug_info    0x00000000     0x19a0 ./drivers/fsl_lpi2c_edma.o
 .debug_abbrev  0x00000000      0x46e ./drivers/fsl_lpi2c_edma.o
 .debug_loc     0x00000000      0xaef ./drivers/fsl_lpi2c_edma.o
 .debug_aranges
                0x00000000       0x40 ./drivers/fsl_lpi2c_edma.o
 .debug_ranges  0x00000000      0x198 ./drivers/fsl_lpi2c_edma.o
 .debug_line    0x00000000      0x7be ./drivers/fsl_lpi2c_edma.o
 .debug_str     0x00000000     0x1937 ./drivers/fsl_lpi2c_edma.o
 .comment       0x00000000       0x76 ./drivers/fsl_lpi2c_edma.o
 .debug_frame   0x00000000       0xe0 ./drivers/fsl_lpi2c_edma.o
 .ARM.attributes
                0x00000000       0x34 ./drivers/fsl_lpi2c_edma.o
 .text          0x00000000        0x0 ./drivers/fsl_lpuart.o
 .data          0x00000000        0x0 ./drivers/fsl_lpuart.o
 .bss           0x00000000        0x0 ./drivers/fsl_lpuart.o
 .text.LPUART_TransferHandleIRQ
                0x00000000      0x3c8 ./drivers/fsl_lpuart.o
 .text.LPUART_GetInstance
                0x00000000       0x38 ./drivers/fsl_lpuart.o
 .text.LPUART_TransferGetRxRingBufferLength
                0x00000000       0x14 ./drivers/fsl_lpuart.o
 .text.LPUART_Deinit
                0x00000000       0x8c ./drivers/fsl_lpuart.o
 .text.LPUART_SetBaudRate
                0x00000000       0xdc ./drivers/fsl_lpuart.o
 .text.LPUART_EnableInterrupts
                0x00000000       0x2c ./drivers/fsl_lpuart.o
 .text.LPUART_DisableInterrupts
                0x00000000       0x30 ./drivers/fsl_lpuart.o
 .text.LPUART_GetEnabledInterrupts
                0x00000000       0x20 ./drivers/fsl_lpuart.o
 .text.LPUART_GetStatusFlags
                0x00000000       0x10 ./drivers/fsl_lpuart.o
 .text.LPUART_ClearStatusFlags
                0x00000000       0x54 ./drivers/fsl_lpuart.o
 .text.LPUART_WriteBlocking
                0x00000000       0x1c ./drivers/fsl_lpuart.o
 .text.LPUART_ReadBlocking
                0x00000000      0x104 ./drivers/fsl_lpuart.o
 .text.LPUART_TransferCreateHandle
                0x00000000       0xa8 ./drivers/fsl_lpuart.o
 .text.LPUART_TransferStartRingBuffer
                0x00000000       0x28 ./drivers/fsl_lpuart.o
 .text.LPUART_TransferStopRingBuffer
                0x00000000       0x28 ./drivers/fsl_lpuart.o
 .text.LPUART_TransferSendNonBlocking
                0x00000000       0x3c ./drivers/fsl_lpuart.o
 .text.LPUART_TransferAbortSend
                0x00000000       0x20 ./drivers/fsl_lpuart.o
 .text.LPUART_TransferGetSendCount
                0x00000000       0x20 ./drivers/fsl_lpuart.o
 .text.LPUART_TransferReceiveNonBlocking
                0x00000000      0x118 ./drivers/fsl_lpuart.o
 .text.LPUART_TransferAbortReceive
                0x00000000       0x28 ./drivers/fsl_lpuart.o
 .text.LPUART_TransferGetReceiveCount
                0x00000000       0x24 ./drivers/fsl_lpuart.o
 .text.LPUART_TransferHandleErrorIRQ
                0x00000000        0x4 ./drivers/fsl_lpuart.o
 .text          0x00000000        0x0 ./drivers/fsl_lpuart_edma.o
 .data          0x00000000        0x0 ./drivers/fsl_lpuart_edma.o
 .bss           0x00000000        0x0 ./drivers/fsl_lpuart_edma.o
 .text.LPUART_SendEDMACallback
                0x00000000       0x3c ./drivers/fsl_lpuart_edma.o
 .text.LPUART_ReceiveEDMACallback
                0x00000000       0x38 ./drivers/fsl_lpuart_edma.o
 .text.LPUART_TransferCreateHandleEDMA
                0x00000000       0x84 ./drivers/fsl_lpuart_edma.o
 .text.LPUART_SendEDMA
                0x00000000       0x64 ./drivers/fsl_lpuart_edma.o
 .text.LPUART_ReceiveEDMA
                0x00000000       0x60 ./drivers/fsl_lpuart_edma.o
 .text.LPUART_TransferAbortSendEDMA
                0x00000000       0x1c ./drivers/fsl_lpuart_edma.o
 .text.LPUART_TransferAbortReceiveEDMA
                0x00000000       0x1c ./drivers/fsl_lpuart_edma.o
 .text.LPUART_TransferGetReceiveCountEDMA
                0x00000000       0x28 ./drivers/fsl_lpuart_edma.o
 .text.LPUART_TransferGetSendCountEDMA
                0x00000000       0x24 ./drivers/fsl_lpuart_edma.o
 .bss.s_lpuartEdmaPrivateHandle
                0x00000000       0x28 ./drivers/fsl_lpuart_edma.o
 .debug_info    0x00000000     0x15f1 ./drivers/fsl_lpuart_edma.o
 .debug_abbrev  0x00000000      0x40f ./drivers/fsl_lpuart_edma.o
 .debug_loc     0x00000000      0xa8a ./drivers/fsl_lpuart_edma.o
 .debug_aranges
                0x00000000       0x60 ./drivers/fsl_lpuart_edma.o
 .debug_ranges  0x00000000      0x140 ./drivers/fsl_lpuart_edma.o
 .debug_line    0x00000000      0x6cc ./drivers/fsl_lpuart_edma.o
 .debug_str     0x00000000     0x1486 ./drivers/fsl_lpuart_edma.o
 .comment       0x00000000       0x76 ./drivers/fsl_lpuart_edma.o
 .debug_frame   0x00000000      0x180 ./drivers/fsl_lpuart_edma.o
 .ARM.attributes
                0x00000000       0x34 ./drivers/fsl_lpuart_edma.o
 .text          0x00000000        0x0 ./drivers/fsl_pit.o
 .data          0x00000000        0x0 ./drivers/fsl_pit.o
 .bss           0x00000000        0x0 ./drivers/fsl_pit.o
 .text.PIT_Deinit
                0x00000000       0x18 ./drivers/fsl_pit.o
 .text.PIT_GetLifetimeTimerCount
                0x00000000       0x20 ./drivers/fsl_pit.o
 .text          0x00000000        0x0 ./drivers/fsl_sai.o
 .data          0x00000000        0x0 ./drivers/fsl_sai.o
 .bss           0x00000000        0x0 ./drivers/fsl_sai.o
 .text.SAI_TransferRxHandleIRQ
                0x00000000      0x1dc ./drivers/fsl_sai.o
 .text.SAI_TransferTxHandleIRQ
                0x00000000      0x1e0 ./drivers/fsl_sai.o
 .text.SAI_TxInit
                0x00000000      0x120 ./drivers/fsl_sai.o
 .text.SAI_RxInit
                0x00000000      0x160 ./drivers/fsl_sai.o
 .text.SAI_Deinit
                0x00000000       0x68 ./drivers/fsl_sai.o
 .text.SAI_TxGetDefaultConfig
                0x00000000       0x18 ./drivers/fsl_sai.o
 .text.SAI_RxGetDefaultConfig
                0x00000000       0x18 ./drivers/fsl_sai.o
 .text.SAI_TxReset
                0x00000000       0x1c ./drivers/fsl_sai.o
 .text.SAI_RxReset
                0x00000000       0x2c ./drivers/fsl_sai.o
 .text.SAI_TxSoftwareReset
                0x00000000       0x10 ./drivers/fsl_sai.o
 .text.SAI_RxSoftwareReset
                0x00000000       0x18 ./drivers/fsl_sai.o
 .text.SAI_TxSetChannelFIFOMask
                0x00000000       0x18 ./drivers/fsl_sai.o
 .text.SAI_RxSetChannelFIFOMask
                0x00000000       0x20 ./drivers/fsl_sai.o
 .text.SAI_TxSetDataOrder
                0x00000000       0x14 ./drivers/fsl_sai.o
 .text.SAI_RxSetDataOrder
                0x00000000       0x18 ./drivers/fsl_sai.o
 .text.SAI_TxSetBitClockPolarity
                0x00000000       0x14 ./drivers/fsl_sai.o
 .text.SAI_RxSetBitClockPolarity
                0x00000000       0x18 ./drivers/fsl_sai.o
 .text.SAI_TxSetFrameSyncPolarity
                0x00000000       0x14 ./drivers/fsl_sai.o
 .text.SAI_RxSetFrameSyncPolarity
                0x00000000       0x18 ./drivers/fsl_sai.o
 .text.SAI_TxSetFIFOPacking
                0x00000000       0x14 ./drivers/fsl_sai.o
 .text.SAI_RxSetFIFOPacking
                0x00000000       0x18 ./drivers/fsl_sai.o
 .text.SAI_TxSetBitclockConfig
                0x00000000       0x44 ./drivers/fsl_sai.o
 .text.SAI_RxSetBitclockConfig
                0x00000000       0x48 ./drivers/fsl_sai.o
 .text.SAI_TxSetFifoConfig
                0x00000000       0x34 ./drivers/fsl_sai.o
 .text.SAI_RxSetFifoConfig
                0x00000000       0x3c ./drivers/fsl_sai.o
 .text.SAI_TxSetFrameSyncConfig
                0x00000000       0x44 ./drivers/fsl_sai.o
 .text.SAI_RxSetFrameSyncConfig
                0x00000000       0x48 ./drivers/fsl_sai.o
 .text.SAI_TxSetSerialDataConfig
                0x00000000       0x60 ./drivers/fsl_sai.o
 .text.SAI_RxSetSerialDataConfig
                0x00000000       0x58 ./drivers/fsl_sai.o
 .text.SAI_TransferTxSetConfig
                0x00000000       0x20 ./drivers/fsl_sai.o
 .text.SAI_TransferRxSetConfig
                0x00000000       0x20 ./drivers/fsl_sai.o
 .text.SAI_GetClassicI2SConfig
                0x00000000       0x4c ./drivers/fsl_sai.o
 .text.SAI_GetLeftJustifiedConfig
                0x00000000       0x48 ./drivers/fsl_sai.o
 .text.SAI_GetRightJustifiedConfig
                0x00000000       0x48 ./drivers/fsl_sai.o
 .text.SAI_GetDSPConfig
                0x00000000       0x54 ./drivers/fsl_sai.o
 .text.SAI_GetTDMConfig
                0x00000000       0x58 ./drivers/fsl_sai.o
 .text.SAI_TxSetFormat
                0x00000000      0x160 ./drivers/fsl_sai.o
 .text.SAI_RxSetFormat
                0x00000000      0x188 ./drivers/fsl_sai.o
 .text.SAI_WriteBlocking
                0x00000000       0xd0 ./drivers/fsl_sai.o
 .text.SAI_WriteMultiChannelBlocking
                0x00000000      0x11c ./drivers/fsl_sai.o
 .text.SAI_ReadMultiChannelBlocking
                0x00000000       0xf4 ./drivers/fsl_sai.o
 .text.SAI_ReadBlocking
                0x00000000       0xb4 ./drivers/fsl_sai.o
 .text.SAI_TransferTxCreateHandle
                0x00000000       0xa0 ./drivers/fsl_sai.o
 .text.SAI_TransferRxCreateHandle
                0x00000000       0xa0 ./drivers/fsl_sai.o
 .text.SAI_TransferTxSetFormat
                0x00000000      0x1ac ./drivers/fsl_sai.o
 .text.SAI_TransferRxSetFormat
                0x00000000      0x1cc ./drivers/fsl_sai.o
 .text.SAI_TransferSendNonBlocking
                0x00000000       0x94 ./drivers/fsl_sai.o
 .text.SAI_TransferReceiveNonBlocking
                0x00000000       0x9c ./drivers/fsl_sai.o
 .text.SAI_TransferGetSendCount
                0x00000000       0x28 ./drivers/fsl_sai.o
 .text.SAI_TransferGetReceiveCount
                0x00000000       0x28 ./drivers/fsl_sai.o
 .text.SAI_TransferAbortSend
                0x00000000       0x44 ./drivers/fsl_sai.o
 .text.SAI_TransferAbortReceive
                0x00000000       0x48 ./drivers/fsl_sai.o
 .text.SAI_TransferTerminateSend
                0x00000000       0x64 ./drivers/fsl_sai.o
 .text.SAI_TransferTerminateReceive
                0x00000000       0x68 ./drivers/fsl_sai.o
 .text.SAI1_DriverIRQHandler
                0x00000000       0x90 ./drivers/fsl_sai.o
 .text.SAI3_DriverIRQHandler
                0x00000000       0x90 ./drivers/fsl_sai.o
 .text          0x00000000        0x0 ./device/system_MIMXRT1011.o
 .data          0x00000000        0x0 ./device/system_MIMXRT1011.o
 .bss           0x00000000        0x0 ./device/system_MIMXRT1011.o
 .text.SystemCoreClockUpdate
                0x00000000       0xfc ./device/system_MIMXRT1011.o
 .text.SystemInitHook
                0x00000000        0x4 ./device/system_MIMXRT1011.o
 .text          0x00000000        0x0 ./component/uart/lpuart_adapter.o
 .data          0x00000000        0x0 ./component/uart/lpuart_adapter.o
 .bss           0x00000000        0x0 ./component/uart/lpuart_adapter.o
 .text.HAL_UartDeinit
                0x00000000       0x18 ./component/uart/lpuart_adapter.o
 .text.HAL_UartReceiveBlocking
                0x00000000       0x20 ./component/uart/lpuart_adapter.o
 .text.HAL_UartSendBlocking
                0x00000000       0x18 ./component/uart/lpuart_adapter.o
 .text          0x00000000        0x0 ./component/serial_manager/serial_manager.o
 .data          0x00000000        0x0 ./component/serial_manager/serial_manager.o
 .bss           0x00000000        0x0 ./component/serial_manager/serial_manager.o
 .text.SerialManager_Deinit
                0x00000000       0x3c ./component/serial_manager/serial_manager.o
 .text.SerialManager_CloseWriteHandle
                0x00000000       0x24 ./component/serial_manager/serial_manager.o
 .text.SerialManager_CloseReadHandle
                0x00000000       0x20 ./component/serial_manager/serial_manager.o
 .text.SerialManager_WriteBlocking
                0x00000000       0x14 ./component/serial_manager/serial_manager.o
 .text.SerialManager_ReadBlocking
                0x00000000       0x14 ./component/serial_manager/serial_manager.o
 .text.SerialManager_EnterLowpower
                0x00000000        0x4 ./component/serial_manager/serial_manager.o
 .text.SerialManager_ExitLowpower
                0x00000000        0x4 ./component/serial_manager/serial_manager.o
 .text          0x00000000        0x0 ./component/serial_manager/serial_port_uart.o
 .data          0x00000000        0x0 ./component/serial_manager/serial_port_uart.o
 .bss           0x00000000        0x0 ./component/serial_manager/serial_port_uart.o
 .text.Serial_UartDeinit
                0x00000000        0xc ./component/serial_manager/serial_port_uart.o
 .text.Serial_UartWrite
                0x00000000        0x4 ./component/serial_manager/serial_port_uart.o
 .text.Serial_UartRead
                0x00000000        0x4 ./component/serial_manager/serial_port_uart.o
 .text          0x00000000        0x0 ./component/i2c/lpi2c_adapter.o
 .data          0x00000000        0x0 ./component/i2c/lpi2c_adapter.o
 .bss           0x00000000        0x0 ./component/i2c/lpi2c_adapter.o
 .text.HAL_I2cMasterCallback
                0x00000000       0x74 ./component/i2c/lpi2c_adapter.o
 .text.HAL_I2cSlaveCallback
                0x00000000       0x8c ./component/i2c/lpi2c_adapter.o
 .text.HAL_I2cGetStatus
                0x00000000       0x58 ./component/i2c/lpi2c_adapter.o
 .text.HAL_I2cMasterInit
                0x00000000       0x38 ./component/i2c/lpi2c_adapter.o
 .text.HAL_I2cSlaveInit
                0x00000000       0x38 ./component/i2c/lpi2c_adapter.o
 .text.HAL_I2cMasterDeinit
                0x00000000       0x18 ./component/i2c/lpi2c_adapter.o
 .text.HAL_I2cSlaveDeinit
                0x00000000       0x18 ./component/i2c/lpi2c_adapter.o
 .text.HAL_I2cMasterWriteBlocking
                0x00000000        0x8 ./component/i2c/lpi2c_adapter.o
 .text.HAL_I2cMasterReadBlocking
                0x00000000        0x8 ./component/i2c/lpi2c_adapter.o
 .text.HAL_I2cSlaveWriteBlocking
                0x00000000        0x8 ./component/i2c/lpi2c_adapter.o
 .text.HAL_I2cSlaveReadBlocking
                0x00000000        0x8 ./component/i2c/lpi2c_adapter.o
 .text.HAL_I2cMasterTransferBlocking
                0x00000000       0xa4 ./component/i2c/lpi2c_adapter.o
 .text.HAL_I2cMasterTransferInstallCallback
                0x00000000       0x28 ./component/i2c/lpi2c_adapter.o
 .text.HAL_I2cMasterTransferNonBlocking
                0x00000000       0xa8 ./component/i2c/lpi2c_adapter.o
 .text.HAL_I2cMasterTransferGetCount
                0x00000000       0x74 ./component/i2c/lpi2c_adapter.o
 .text.HAL_I2cMasterTransferAbort
                0x00000000       0x1c ./component/i2c/lpi2c_adapter.o
 .text.HAL_I2cSlaveTransferInstallCallback
                0x00000000       0x28 ./component/i2c/lpi2c_adapter.o
 .text.HAL_I2cSlaveTransferNonBlocking
                0x00000000       0x74 ./component/i2c/lpi2c_adapter.o
 .text.HAL_I2cSlaveTransferAbort
                0x00000000       0x1c ./component/i2c/lpi2c_adapter.o
 .text.HAL_I2cSlaveTransferGetCount
                0x00000000       0x74 ./component/i2c/lpi2c_adapter.o
 .rodata.s_i2cBases
                0x00000000        0xc ./component/i2c/lpi2c_adapter.o
 .debug_info    0x00000000     0x1b66 ./component/i2c/lpi2c_adapter.o
 .debug_abbrev  0x00000000      0x39b ./component/i2c/lpi2c_adapter.o
 .debug_loc     0x00000000      0xe3e ./component/i2c/lpi2c_adapter.o
 .debug_aranges
                0x00000000       0xa8 ./component/i2c/lpi2c_adapter.o
 .debug_ranges  0x00000000      0x1b0 ./component/i2c/lpi2c_adapter.o
 .debug_line    0x00000000      0x892 ./component/i2c/lpi2c_adapter.o
 .debug_str     0x00000000     0x1c58 ./component/i2c/lpi2c_adapter.o
 .comment       0x00000000       0x76 ./component/i2c/lpi2c_adapter.o
 .debug_frame   0x00000000      0x22c ./component/i2c/lpi2c_adapter.o
 .ARM.attributes
                0x00000000       0x34 ./component/i2c/lpi2c_adapter.o
 .text          0x00000000        0x0 ./codec/fsl_codec_adapter.o
 .data          0x00000000        0x0 ./codec/fsl_codec_adapter.o
 .bss           0x00000000        0x0 ./codec/fsl_codec_adapter.o
 .text.HAL_CODEC_Init
                0x00000000       0x14 ./codec/fsl_codec_adapter.o
 .text.HAL_CODEC_Deinit
                0x00000000        0x8 ./codec/fsl_codec_adapter.o
 .text.HAL_CODEC_SetFormat
                0x00000000        0x8 ./codec/fsl_codec_adapter.o
 .text.HAL_CODEC_SetVolume
                0x00000000       0x38 ./codec/fsl_codec_adapter.o
 .text.HAL_CODEC_SetMute
                0x00000000       0x38 ./codec/fsl_codec_adapter.o
 .text.HAL_CODEC_SetPower
                0x00000000       0x4c ./codec/fsl_codec_adapter.o
 .text.HAL_CODEC_SetRecordChannel
                0x00000000        0x8 ./codec/fsl_codec_adapter.o
 .text.HAL_CODEC_SetRecord
                0x00000000        0x8 ./codec/fsl_codec_adapter.o
 .text.HAL_CODEC_SetPlay
                0x00000000        0x8 ./codec/fsl_codec_adapter.o
 .text.HAL_CODEC_ModuleControl
                0x00000000        0x8 ./codec/fsl_codec_adapter.o
 .rodata.s_wm8960_capability
                0x00000000        0xc ./codec/fsl_codec_adapter.o
 .debug_info    0x00000000      0xdf4 ./codec/fsl_codec_adapter.o
 .debug_abbrev  0x00000000      0x20f ./codec/fsl_codec_adapter.o
 .debug_loc     0x00000000      0x5ed ./codec/fsl_codec_adapter.o
 .debug_aranges
                0x00000000       0x68 ./codec/fsl_codec_adapter.o
 .debug_ranges  0x00000000       0x58 ./codec/fsl_codec_adapter.o
 .debug_line    0x00000000      0x3cd ./codec/fsl_codec_adapter.o
 .debug_str     0x00000000     0x191c ./codec/fsl_codec_adapter.o
 .comment       0x00000000       0x76 ./codec/fsl_codec_adapter.o
 .debug_frame   0x00000000       0xd8 ./codec/fsl_codec_adapter.o
 .ARM.attributes
                0x00000000       0x34 ./codec/fsl_codec_adapter.o
 .text          0x00000000        0x0 ./codec/fsl_codec_common.o
 .data          0x00000000        0x0 ./codec/fsl_codec_common.o
 .bss           0x00000000        0x0 ./codec/fsl_codec_common.o
 .text.CODEC_Init
                0x00000000        0x8 ./codec/fsl_codec_common.o
 .text.CODEC_Deinit
                0x00000000        0x4 ./codec/fsl_codec_common.o
 .text.CODEC_SetFormat
                0x00000000        0x4 ./codec/fsl_codec_common.o
 .text.CODEC_ModuleControl
                0x00000000       0x14 ./codec/fsl_codec_common.o
 .text.CODEC_SetVolume
                0x00000000       0x18 ./codec/fsl_codec_common.o
 .text.CODEC_SetMute
                0x00000000       0x18 ./codec/fsl_codec_common.o
 .text.CODEC_SetPower
                0x00000000       0x14 ./codec/fsl_codec_common.o
 .text.CODEC_SetRecord
                0x00000000       0x14 ./codec/fsl_codec_common.o
 .text.CODEC_SetRecordChannel
                0x00000000       0x28 ./codec/fsl_codec_common.o
 .text.CODEC_SetPlay
                0x00000000       0x14 ./codec/fsl_codec_common.o
 .debug_info    0x00000000      0x856 ./codec/fsl_codec_common.o
 .debug_abbrev  0x00000000      0x157 ./codec/fsl_codec_common.o
 .debug_loc     0x00000000      0x546 ./codec/fsl_codec_common.o
 .debug_aranges
                0x00000000       0x68 ./codec/fsl_codec_common.o
 .debug_ranges  0x00000000       0x58 ./codec/fsl_codec_common.o
 .debug_line    0x00000000      0x382 ./codec/fsl_codec_common.o
 .debug_str     0x00000000      0xc34 ./codec/fsl_codec_common.o
 .comment       0x00000000       0x76 ./codec/fsl_codec_common.o
 .debug_frame   0x00000000       0xc0 ./codec/fsl_codec_common.o
 .ARM.attributes
                0x00000000       0x34 ./codec/fsl_codec_common.o
 .text          0x00000000        0x0 ./codec/fsl_codec_i2c.o
 .data          0x00000000        0x0 ./codec/fsl_codec_i2c.o
 .bss           0x00000000        0x0 ./codec/fsl_codec_i2c.o
 .text.CODEC_I2C_Init
                0x00000000       0x1c ./codec/fsl_codec_i2c.o
 .text.CODEC_I2C_Deinit
                0x00000000        0x8 ./codec/fsl_codec_i2c.o
 .text.CODEC_I2C_Send
                0x00000000       0x2c ./codec/fsl_codec_i2c.o
 .text.CODEC_I2C_Receive
                0x00000000       0x2c ./codec/fsl_codec_i2c.o
 .debug_info    0x00000000      0x4ad ./codec/fsl_codec_i2c.o
 .debug_abbrev  0x00000000      0x15c ./codec/fsl_codec_i2c.o
 .debug_loc     0x00000000      0x219 ./codec/fsl_codec_i2c.o
 .debug_aranges
                0x00000000       0x38 ./codec/fsl_codec_i2c.o
 .debug_ranges  0x00000000       0x28 ./codec/fsl_codec_i2c.o
 .debug_line    0x00000000      0x2c5 ./codec/fsl_codec_i2c.o
 .debug_str     0x00000000      0x537 ./codec/fsl_codec_i2c.o
 .comment       0x00000000       0x76 ./codec/fsl_codec_i2c.o
 .debug_frame   0x00000000       0x8c ./codec/fsl_codec_i2c.o
 .ARM.attributes
                0x00000000       0x34 ./codec/fsl_codec_i2c.o
 .text          0x00000000        0x0 ./codec/fsl_wm8960.o
 .data          0x00000000        0x0 ./codec/fsl_wm8960.o
 .bss           0x00000000        0x0 ./codec/fsl_wm8960.o
 .text.WM8960_Deinit
                0x00000000      0x25c ./codec/fsl_wm8960.o
 .text.WM8960_SetMasterSlave
                0x00000000       0x68 ./codec/fsl_wm8960.o
 .text.WM8960_SetModule
                0x00000000      0x35c ./codec/fsl_wm8960.o
 .text.WM8960_SetDataRoute
                0x00000000      0x388 ./codec/fsl_wm8960.o
 .text.WM8960_SetLeftInput
                0x00000000      0x1ac ./codec/fsl_wm8960.o
 .text.WM8960_SetRightInput
                0x00000000      0x1ac ./codec/fsl_wm8960.o
 .text.WM8960_SetProtocol
                0x00000000       0x44 ./codec/fsl_wm8960.o
 .text.WM8960_SetVolume
                0x00000000      0x2fc ./codec/fsl_wm8960.o
 .text.WM8960_GetVolume
                0x00000000       0x3c ./codec/fsl_wm8960.o
 .text.WM8960_SetMute
                0x00000000      0x190 ./codec/fsl_wm8960.o
 .text.WM8960_ConfigDataFormat
                0x00000000       0xf0 ./codec/fsl_wm8960.o
 .text.WM8960_Init
                0x00000000      0x314 ./codec/fsl_wm8960.o
 .text.WM8960_SetJackDetect
                0x00000000       0x44 ./codec/fsl_wm8960.o
 .text.WM8960_WriteReg
                0x00000000       0x38 ./codec/fsl_wm8960.o
 .text.WM8960_ReadReg
                0x00000000       0x1c ./codec/fsl_wm8960.o
 .text.WM8960_ModifyReg
                0x00000000       0x58 ./codec/fsl_wm8960.o
 .text.WM8960_SetPlay
                0x00000000      0x27c ./codec/fsl_wm8960.o
 .bss.reg_cache
                0x00000000       0x70 ./codec/fsl_wm8960.o
 .rodata.wm8960_reg
                0x00000000       0x70 ./codec/fsl_wm8960.o
 .debug_info    0x00000000     0x8974 ./codec/fsl_wm8960.o
 .debug_abbrev  0x00000000      0x416 ./codec/fsl_wm8960.o
 .debug_loc     0x00000000     0x99b8 ./codec/fsl_wm8960.o
 .debug_aranges
                0x00000000       0xa0 ./codec/fsl_wm8960.o
 .debug_ranges  0x00000000     0x10f8 ./codec/fsl_wm8960.o
 .debug_line    0x00000000     0x3450 ./codec/fsl_wm8960.o
 .debug_str     0x00000000     0x11cc ./codec/fsl_wm8960.o
 .comment       0x00000000       0x76 ./codec/fsl_wm8960.o
 .debug_frame   0x00000000      0x34c ./codec/fsl_wm8960.o
 .ARM.attributes
                0x00000000       0x34 ./codec/fsl_wm8960.o
 .text          0x00000000        0x0 ./board/board.o
 .data          0x00000000        0x0 ./board/board.o
 .bss           0x00000000        0x0 ./board/board.o
 .text.BOARD_DebugConsoleSrcFreq
                0x00000000       0x64 ./board/board.o
 .text.BOARD_ConfigMPU
                0x00000000      0x1dc ./board/board.o
 .text          0x00000000        0x0 ./board/clock_config.o
 .data          0x00000000        0x0 ./board/clock_config.o
 .bss           0x00000000        0x0 ./board/clock_config.o
 .rodata.usb1PllConfig_BOARD_BootClockRUN
                0x00000000        0x2 ./board/clock_config.o
 .text          0x00000000        0x0 ./board/peripherals.o
 .data          0x00000000        0x0 ./board/peripherals.o
 .bss           0x00000000        0x0 ./board/peripherals.o
 .text.SAI_1_init
                0x00000000       0x74 ./board/peripherals.o
 .text.GPIO_1_init
                0x00000000        0x4 ./board/peripherals.o
 .text.LPUART_1_init
                0x00000000       0x18 ./board/peripherals.o
 .text.I2C_init
                0x00000000       0x18 ./board/peripherals.o
 .text.GPIO_2_init
                0x00000000        0x4 ./board/peripherals.o
 .text.PIT_1_init
                0x00000000       0x4c ./board/peripherals.o
 .text.BOARD_InitPeripherals
                0x00000000       0xd8 ./board/peripherals.o
 .data.I2C_masterTransfer
                0x00000000       0x18 ./board/peripherals.o
 .text          0x00000000        0x0 ./board/pin_mux.o
 .data          0x00000000        0x0 ./board/pin_mux.o
 .bss           0x00000000        0x0 ./board/pin_mux.o
 .text.BOARD_InitDEBUG_UARTPins
                0x00000000       0x38 ./board/pin_mux.o
 .text.BOARD_InitQSPIPins
                0x00000000       0x48 ./board/pin_mux.o
 .text          0x00000000        0x0 F:\Dropbox\Hardware Development\MCUXpresso\11.0.1\workspace\speakEZ\libs\libarm_cortexM7lfsp_math.a(arm_sin_f32.o)
 .data          0x00000000        0x0 F:\Dropbox\Hardware Development\MCUXpresso\11.0.1\workspace\speakEZ\libs\libarm_cortexM7lfsp_math.a(arm_sin_f32.o)
 .bss           0x00000000        0x0 F:\Dropbox\Hardware Development\MCUXpresso\11.0.1\workspace\speakEZ\libs\libarm_cortexM7lfsp_math.a(arm_sin_f32.o)
 .text          0x00000000        0x0 F:\Dropbox\Hardware Development\MCUXpresso\11.0.1\workspace\speakEZ\libs\libarm_cortexM7lfsp_math.a(arm_cos_f32.o)
 .data          0x00000000        0x0 F:\Dropbox\Hardware Development\MCUXpresso\11.0.1\workspace\speakEZ\libs\libarm_cortexM7lfsp_math.a(arm_cos_f32.o)
 .bss           0x00000000        0x0 F:\Dropbox\Hardware Development\MCUXpresso\11.0.1\workspace\speakEZ\libs\libarm_cortexM7lfsp_math.a(arm_cos_f32.o)
 .text          0x00000000        0x0 F:\Dropbox\Hardware Development\MCUXpresso\11.0.1\workspace\speakEZ\libs\libarm_cortexM7lfsp_math.a(arm_common_tables.o)
 .data          0x00000000        0x0 F:\Dropbox\Hardware Development\MCUXpresso\11.0.1\workspace\speakEZ\libs\libarm_cortexM7lfsp_math.a(arm_common_tables.o)
 .bss           0x00000000        0x0 F:\Dropbox\Hardware Development\MCUXpresso\11.0.1\workspace\speakEZ\libs\libarm_cortexM7lfsp_math.a(arm_common_tables.o)
 .rodata.armBitRevIndexTable1024
                0x00000000      0xe10 F:\Dropbox\Hardware Development\MCUXpresso\11.0.1\workspace\speakEZ\libs\libarm_cortexM7lfsp_math.a(arm_common_tables.o)
 .rodata.armBitRevIndexTable128
                0x00000000      0x1a0 F:\Dropbox\Hardware Development\MCUXpresso\11.0.1\workspace\speakEZ\libs\libarm_cortexM7lfsp_math.a(arm_common_tables.o)
 .rodata.armBitRevIndexTable16
                0x00000000       0x28 F:\Dropbox\Hardware Development\MCUXpresso\11.0.1\workspace\speakEZ\libs\libarm_cortexM7lfsp_math.a(arm_common_tables.o)
 .rodata.armBitRevIndexTable2048
                0x00000000     0x1dc0 F:\Dropbox\Hardware Development\MCUXpresso\11.0.1\workspace\speakEZ\libs\libarm_cortexM7lfsp_math.a(arm_common_tables.o)
 .rodata.armBitRevIndexTable256
                0x00000000      0x370 F:\Dropbox\Hardware Development\MCUXpresso\11.0.1\workspace\speakEZ\libs\libarm_cortexM7lfsp_math.a(arm_common_tables.o)
 .rodata.armBitRevIndexTable32
                0x00000000       0x60 F:\Dropbox\Hardware Development\MCUXpresso\11.0.1\workspace\speakEZ\libs\libarm_cortexM7lfsp_math.a(arm_common_tables.o)
 .rodata.armBitRevIndexTable4096
                0x00000000     0x1f80 F:\Dropbox\Hardware Development\MCUXpresso\11.0.1\workspace\speakEZ\libs\libarm_cortexM7lfsp_math.a(arm_common_tables.o)
 .rodata.armBitRevIndexTable512
                0x00000000      0x380 F:\Dropbox\Hardware Development\MCUXpresso\11.0.1\workspace\speakEZ\libs\libarm_cortexM7lfsp_math.a(arm_common_tables.o)
 .rodata.armBitRevIndexTable64
                0x00000000       0x70 F:\Dropbox\Hardware Development\MCUXpresso\11.0.1\workspace\speakEZ\libs\libarm_cortexM7lfsp_math.a(arm_common_tables.o)
 .rodata.armBitRevIndexTable_fixed_1024
                0x00000000      0x7c0 F:\Dropbox\Hardware Development\MCUXpresso\11.0.1\workspace\speakEZ\libs\libarm_cortexM7lfsp_math.a(arm_common_tables.o)
 .rodata.armBitRevIndexTable_fixed_128
                0x00000000       0xe0 F:\Dropbox\Hardware Development\MCUXpresso\11.0.1\workspace\speakEZ\libs\libarm_cortexM7lfsp_math.a(arm_common_tables.o)
 .rodata.armBitRevIndexTable_fixed_16
                0x00000000       0x18 F:\Dropbox\Hardware Development\MCUXpresso\11.0.1\workspace\speakEZ\libs\libarm_cortexM7lfsp_math.a(arm_common_tables.o)
 .rodata.armBitRevIndexTable_fixed_2048
                0x00000000      0xf80 F:\Dropbox\Hardware Development\MCUXpresso\11.0.1\workspace\speakEZ\libs\libarm_cortexM7lfsp_math.a(arm_common_tables.o)
 .rodata.armBitRevIndexTable_fixed_256
                0x00000000      0x1e0 F:\Dropbox\Hardware Development\MCUXpresso\11.0.1\workspace\speakEZ\libs\libarm_cortexM7lfsp_math.a(arm_common_tables.o)
 .rodata.armBitRevIndexTable_fixed_32
                0x00000000       0x30 F:\Dropbox\Hardware Development\MCUXpresso\11.0.1\workspace\speakEZ\libs\libarm_cortexM7lfsp_math.a(arm_common_tables.o)
 .rodata.armBitRevIndexTable_fixed_4096
                0x00000000     0x1f80 F:\Dropbox\Hardware Development\MCUXpresso\11.0.1\workspace\speakEZ\libs\libarm_cortexM7lfsp_math.a(arm_common_tables.o)
 .rodata.armBitRevIndexTable_fixed_512
                0x00000000      0x3c0 F:\Dropbox\Hardware Development\MCUXpresso\11.0.1\workspace\speakEZ\libs\libarm_cortexM7lfsp_math.a(arm_common_tables.o)
 .rodata.armBitRevIndexTable_fixed_64
                0x00000000       0x70 F:\Dropbox\Hardware Development\MCUXpresso\11.0.1\workspace\speakEZ\libs\libarm_cortexM7lfsp_math.a(arm_common_tables.o)
 .rodata.armBitRevTable
                0x00000000      0x800 F:\Dropbox\Hardware Development\MCUXpresso\11.0.1\workspace\speakEZ\libs\libarm_cortexM7lfsp_math.a(arm_common_tables.o)
 .rodata.armRecipTableQ15
                0x00000000       0x80 F:\Dropbox\Hardware Development\MCUXpresso\11.0.1\workspace\speakEZ\libs\libarm_cortexM7lfsp_math.a(arm_common_tables.o)
 .rodata.armRecipTableQ31
                0x00000000      0x100 F:\Dropbox\Hardware Development\MCUXpresso\11.0.1\workspace\speakEZ\libs\libarm_cortexM7lfsp_math.a(arm_common_tables.o)
 .rodata.sinTable_q15
                0x00000000      0x402 F:\Dropbox\Hardware Development\MCUXpresso\11.0.1\workspace\speakEZ\libs\libarm_cortexM7lfsp_math.a(arm_common_tables.o)
 .rodata.sinTable_q31
                0x00000000      0x804 F:\Dropbox\Hardware Development\MCUXpresso\11.0.1\workspace\speakEZ\libs\libarm_cortexM7lfsp_math.a(arm_common_tables.o)
 .rodata.twiddleCoef_1024
                0x00000000     0x2000 F:\Dropbox\Hardware Development\MCUXpresso\11.0.1\workspace\speakEZ\libs\libarm_cortexM7lfsp_math.a(arm_common_tables.o)
 .rodata.twiddleCoef_1024_q15
                0x00000000      0xc00 F:\Dropbox\Hardware Development\MCUXpresso\11.0.1\workspace\speakEZ\libs\libarm_cortexM7lfsp_math.a(arm_common_tables.o)
 .rodata.twiddleCoef_1024_q31
                0x00000000     0x1800 F:\Dropbox\Hardware Development\MCUXpresso\11.0.1\workspace\speakEZ\libs\libarm_cortexM7lfsp_math.a(arm_common_tables.o)
 .rodata.twiddleCoef_128
                0x00000000      0x400 F:\Dropbox\Hardware Development\MCUXpresso\11.0.1\workspace\speakEZ\libs\libarm_cortexM7lfsp_math.a(arm_common_tables.o)
 .rodata.twiddleCoef_128_q15
                0x00000000      0x180 F:\Dropbox\Hardware Development\MCUXpresso\11.0.1\workspace\speakEZ\libs\libarm_cortexM7lfsp_math.a(arm_common_tables.o)
 .rodata.twiddleCoef_128_q31
                0x00000000      0x300 F:\Dropbox\Hardware Development\MCUXpresso\11.0.1\workspace\speakEZ\libs\libarm_cortexM7lfsp_math.a(arm_common_tables.o)
 .rodata.twiddleCoef_16
                0x00000000       0x80 F:\Dropbox\Hardware Development\MCUXpresso\11.0.1\workspace\speakEZ\libs\libarm_cortexM7lfsp_math.a(arm_common_tables.o)
 .rodata.twiddleCoef_16_q15
                0x00000000       0x30 F:\Dropbox\Hardware Development\MCUXpresso\11.0.1\workspace\speakEZ\libs\libarm_cortexM7lfsp_math.a(arm_common_tables.o)
 .rodata.twiddleCoef_16_q31
                0x00000000       0x60 F:\Dropbox\Hardware Development\MCUXpresso\11.0.1\workspace\speakEZ\libs\libarm_cortexM7lfsp_math.a(arm_common_tables.o)
 .rodata.twiddleCoef_2048
                0x00000000     0x4000 F:\Dropbox\Hardware Development\MCUXpresso\11.0.1\workspace\speakEZ\libs\libarm_cortexM7lfsp_math.a(arm_common_tables.o)
 .rodata.twiddleCoef_2048_q15
                0x00000000     0x1800 F:\Dropbox\Hardware Development\MCUXpresso\11.0.1\workspace\speakEZ\libs\libarm_cortexM7lfsp_math.a(arm_common_tables.o)
 .rodata.twiddleCoef_2048_q31
                0x00000000     0x3000 F:\Dropbox\Hardware Development\MCUXpresso\11.0.1\workspace\speakEZ\libs\libarm_cortexM7lfsp_math.a(arm_common_tables.o)
 .rodata.twiddleCoef_256
                0x00000000      0x800 F:\Dropbox\Hardware Development\MCUXpresso\11.0.1\workspace\speakEZ\libs\libarm_cortexM7lfsp_math.a(arm_common_tables.o)
 .rodata.twiddleCoef_256_q15
                0x00000000      0x300 F:\Dropbox\Hardware Development\MCUXpresso\11.0.1\workspace\speakEZ\libs\libarm_cortexM7lfsp_math.a(arm_common_tables.o)
 .rodata.twiddleCoef_256_q31
                0x00000000      0x600 F:\Dropbox\Hardware Development\MCUXpresso\11.0.1\workspace\speakEZ\libs\libarm_cortexM7lfsp_math.a(arm_common_tables.o)
 .rodata.twiddleCoef_32
                0x00000000      0x100 F:\Dropbox\Hardware Development\MCUXpresso\11.0.1\workspace\speakEZ\libs\libarm_cortexM7lfsp_math.a(arm_common_tables.o)
 .rodata.twiddleCoef_32_q15
                0x00000000       0x60 F:\Dropbox\Hardware Development\MCUXpresso\11.0.1\workspace\speakEZ\libs\libarm_cortexM7lfsp_math.a(arm_common_tables.o)
 .rodata.twiddleCoef_32_q31
                0x00000000       0xc0 F:\Dropbox\Hardware Development\MCUXpresso\11.0.1\workspace\speakEZ\libs\libarm_cortexM7lfsp_math.a(arm_common_tables.o)
 .rodata.twiddleCoef_4096
                0x00000000     0x8000 F:\Dropbox\Hardware Development\MCUXpresso\11.0.1\workspace\speakEZ\libs\libarm_cortexM7lfsp_math.a(arm_common_tables.o)
 .rodata.twiddleCoef_4096_q15
                0x00000000     0x3000 F:\Dropbox\Hardware Development\MCUXpresso\11.0.1\workspace\speakEZ\libs\libarm_cortexM7lfsp_math.a(arm_common_tables.o)
 .rodata.twiddleCoef_4096_q31
                0x00000000     0x6000 F:\Dropbox\Hardware Development\MCUXpresso\11.0.1\workspace\speakEZ\libs\libarm_cortexM7lfsp_math.a(arm_common_tables.o)
 .rodata.twiddleCoef_512
                0x00000000     0x1000 F:\Dropbox\Hardware Development\MCUXpresso\11.0.1\workspace\speakEZ\libs\libarm_cortexM7lfsp_math.a(arm_common_tables.o)
 .rodata.twiddleCoef_512_q15
                0x00000000      0x600 F:\Dropbox\Hardware Development\MCUXpresso\11.0.1\workspace\speakEZ\libs\libarm_cortexM7lfsp_math.a(arm_common_tables.o)
 .rodata.twiddleCoef_512_q31
                0x00000000      0xc00 F:\Dropbox\Hardware Development\MCUXpresso\11.0.1\workspace\speakEZ\libs\libarm_cortexM7lfsp_math.a(arm_common_tables.o)
 .rodata.twiddleCoef_64
                0x00000000      0x200 F:\Dropbox\Hardware Development\MCUXpresso\11.0.1\workspace\speakEZ\libs\libarm_cortexM7lfsp_math.a(arm_common_tables.o)
 .rodata.twiddleCoef_64_q15
                0x00000000       0xc0 F:\Dropbox\Hardware Development\MCUXpresso\11.0.1\workspace\speakEZ\libs\libarm_cortexM7lfsp_math.a(arm_common_tables.o)
 .rodata.twiddleCoef_64_q31
                0x00000000      0x180 F:\Dropbox\Hardware Development\MCUXpresso\11.0.1\workspace\speakEZ\libs\libarm_cortexM7lfsp_math.a(arm_common_tables.o)
 .rodata.twiddleCoef_rfft_1024
                0x00000000     0x1000 F:\Dropbox\Hardware Development\MCUXpresso\11.0.1\workspace\speakEZ\libs\libarm_cortexM7lfsp_math.a(arm_common_tables.o)
 .rodata.twiddleCoef_rfft_128
                0x00000000      0x200 F:\Dropbox\Hardware Development\MCUXpresso\11.0.1\workspace\speakEZ\libs\libarm_cortexM7lfsp_math.a(arm_common_tables.o)
 .rodata.twiddleCoef_rfft_2048
                0x00000000     0x2000 F:\Dropbox\Hardware Development\MCUXpresso\11.0.1\workspace\speakEZ\libs\libarm_cortexM7lfsp_math.a(arm_common_tables.o)
 .rodata.twiddleCoef_rfft_256
                0x00000000      0x400 F:\Dropbox\Hardware Development\MCUXpresso\11.0.1\workspace\speakEZ\libs\libarm_cortexM7lfsp_math.a(arm_common_tables.o)
 .rodata.twiddleCoef_rfft_32
                0x00000000       0x80 F:\Dropbox\Hardware Development\MCUXpresso\11.0.1\workspace\speakEZ\libs\libarm_cortexM7lfsp_math.a(arm_common_tables.o)
 .rodata.twiddleCoef_rfft_4096
                0x00000000     0x4000 F:\Dropbox\Hardware Development\MCUXpresso\11.0.1\workspace\speakEZ\libs\libarm_cortexM7lfsp_math.a(arm_common_tables.o)
 .rodata.twiddleCoef_rfft_512
                0x00000000      0x800 F:\Dropbox\Hardware Development\MCUXpresso\11.0.1\workspace\speakEZ\libs\libarm_cortexM7lfsp_math.a(arm_common_tables.o)
 .rodata.twiddleCoef_rfft_64
                0x00000000      0x100 F:\Dropbox\Hardware Development\MCUXpresso\11.0.1\workspace\speakEZ\libs\libarm_cortexM7lfsp_math.a(arm_common_tables.o)
 .text          0x00000000        0x0 c:/nxp/mcuxpressoide_11.0.1_2563/ide/plugins/com.nxp.mcuxpresso.tools.win32_11.0.1.201907311258/tools/bin/../lib/gcc/arm-none-eabi/8.2.1/../../../../arm-none-eabi/lib/thumb/v7e-m+fp/hard\libcr_semihost_nf.a(_cr__main.o)
 .data          0x00000000        0x0 c:/nxp/mcuxpressoide_11.0.1_2563/ide/plugins/com.nxp.mcuxpresso.tools.win32_11.0.1.201907311258/tools/bin/../lib/gcc/arm-none-eabi/8.2.1/../../../../arm-none-eabi/lib/thumb/v7e-m+fp/hard\libcr_semihost_nf.a(_cr__main.o)
 .bss           0x00000000        0x0 c:/nxp/mcuxpressoide_11.0.1_2563/ide/plugins/com.nxp.mcuxpresso.tools.win32_11.0.1.201907311258/tools/bin/../lib/gcc/arm-none-eabi/8.2.1/../../../../arm-none-eabi/lib/thumb/v7e-m+fp/hard\libcr_semihost_nf.a(_cr__main.o)
 .text          0x00000000        0x0 c:/nxp/mcuxpressoide_11.0.1_2563/ide/plugins/com.nxp.mcuxpresso.tools.win32_11.0.1.201907311258/tools/bin/../lib/gcc/arm-none-eabi/8.2.1/../../../../arm-none-eabi/lib/thumb/v7e-m+fp/hard\libcr_c.a(fabsf.o)
 .data          0x00000000        0x0 c:/nxp/mcuxpressoide_11.0.1_2563/ide/plugins/com.nxp.mcuxpresso.tools.win32_11.0.1.201907311258/tools/bin/../lib/gcc/arm-none-eabi/8.2.1/../../../../arm-none-eabi/lib/thumb/v7e-m+fp/hard\libcr_c.a(fabsf.o)
 .bss           0x00000000        0x0 c:/nxp/mcuxpressoide_11.0.1_2563/ide/plugins/com.nxp.mcuxpresso.tools.win32_11.0.1.201907311258/tools/bin/../lib/gcc/arm-none-eabi/8.2.1/../../../../arm-none-eabi/lib/thumb/v7e-m+fp/hard\libcr_c.a(fabsf.o)
 .text          0x00000000        0x0 c:/nxp/mcuxpressoide_11.0.1_2563/ide/plugins/com.nxp.mcuxpresso.tools.win32_11.0.1.201907311258/tools/bin/../lib/gcc/arm-none-eabi/8.2.1/../../../../arm-none-eabi/lib/thumb/v7e-m+fp/hard\libcr_c.a(logf.o)
 .data          0x00000000        0x0 c:/nxp/mcuxpressoide_11.0.1_2563/ide/plugins/com.nxp.mcuxpresso.tools.win32_11.0.1.201907311258/tools/bin/../lib/gcc/arm-none-eabi/8.2.1/../../../../arm-none-eabi/lib/thumb/v7e-m+fp/hard\libcr_c.a(logf.o)
 .bss           0x00000000        0x0 c:/nxp/mcuxpressoide_11.0.1_2563/ide/plugins/com.nxp.mcuxpresso.tools.win32_11.0.1.201907311258/tools/bin/../lib/gcc/arm-none-eabi/8.2.1/../../../../arm-none-eabi/lib/thumb/v7e-m+fp/hard\libcr_c.a(logf.o)
 .text          0x00000000        0x0 c:/nxp/mcuxpressoide_11.0.1_2563/ide/plugins/com.nxp.mcuxpresso.tools.win32_11.0.1.201907311258/tools/bin/../lib/gcc/arm-none-eabi/8.2.1/../../../../arm-none-eabi/lib/thumb/v7e-m+fp/hard\libcr_c.a(powf.o)
 .data          0x00000000        0x0 c:/nxp/mcuxpressoide_11.0.1_2563/ide/plugins/com.nxp.mcuxpresso.tools.win32_11.0.1.201907311258/tools/bin/../lib/gcc/arm-none-eabi/8.2.1/../../../../arm-none-eabi/lib/thumb/v7e-m+fp/hard\libcr_c.a(powf.o)
 .bss           0x00000000        0x0 c:/nxp/mcuxpressoide_11.0.1_2563/ide/plugins/com.nxp.mcuxpresso.tools.win32_11.0.1.201907311258/tools/bin/../lib/gcc/arm-none-eabi/8.2.1/../../../../arm-none-eabi/lib/thumb/v7e-m+fp/hard\libcr_c.a(powf.o)
 .text          0x00000000        0x0 c:/nxp/mcuxpressoide_11.0.1_2563/ide/plugins/com.nxp.mcuxpresso.tools.win32_11.0.1.201907311258/tools/bin/../lib/gcc/arm-none-eabi/8.2.1/../../../../arm-none-eabi/lib/thumb/v7e-m+fp/hard\libcr_c.a(sinhf.o)
 .data          0x00000000        0x0 c:/nxp/mcuxpressoide_11.0.1_2563/ide/plugins/com.nxp.mcuxpresso.tools.win32_11.0.1.201907311258/tools/bin/../lib/gcc/arm-none-eabi/8.2.1/../../../../arm-none-eabi/lib/thumb/v7e-m+fp/hard\libcr_c.a(sinhf.o)
 .bss           0x00000000        0x0 c:/nxp/mcuxpressoide_11.0.1_2563/ide/plugins/com.nxp.mcuxpresso.tools.win32_11.0.1.201907311258/tools/bin/../lib/gcc/arm-none-eabi/8.2.1/../../../../arm-none-eabi/lib/thumb/v7e-m+fp/hard\libcr_c.a(sinhf.o)
 .text          0x00000000        0x0 c:/nxp/mcuxpressoide_11.0.1_2563/ide/plugins/com.nxp.mcuxpresso.tools.win32_11.0.1.201907311258/tools/bin/../lib/gcc/arm-none-eabi/8.2.1/../../../../arm-none-eabi/lib/thumb/v7e-m+fp/hard\libcr_c.a(memcpy.o)
 .data          0x00000000        0x0 c:/nxp/mcuxpressoide_11.0.1_2563/ide/plugins/com.nxp.mcuxpresso.tools.win32_11.0.1.201907311258/tools/bin/../lib/gcc/arm-none-eabi/8.2.1/../../../../arm-none-eabi/lib/thumb/v7e-m+fp/hard\libcr_c.a(memcpy.o)
 .bss           0x00000000        0x0 c:/nxp/mcuxpressoide_11.0.1_2563/ide/plugins/com.nxp.mcuxpresso.tools.win32_11.0.1.201907311258/tools/bin/../lib/gcc/arm-none-eabi/8.2.1/../../../../arm-none-eabi/lib/thumb/v7e-m+fp/hard\libcr_c.a(memcpy.o)
 .text.memcpy   0x00000000        0x4 c:/nxp/mcuxpressoide_11.0.1_2563/ide/plugins/com.nxp.mcuxpresso.tools.win32_11.0.1.201907311258/tools/bin/../lib/gcc/arm-none-eabi/8.2.1/../../../../arm-none-eabi/lib/thumb/v7e-m+fp/hard\libcr_c.a(memcpy.o)
 .comment       0x00000000       0x76 c:/nxp/mcuxpressoide_11.0.1_2563/ide/plugins/com.nxp.mcuxpresso.tools.win32_11.0.1.201907311258/tools/bin/../lib/gcc/arm-none-eabi/8.2.1/../../../../arm-none-eabi/lib/thumb/v7e-m+fp/hard\libcr_c.a(memcpy.o)
 .ARM.attributes
                0x00000000       0x34 c:/nxp/mcuxpressoide_11.0.1_2563/ide/plugins/com.nxp.mcuxpresso.tools.win32_11.0.1.201907311258/tools/bin/../lib/gcc/arm-none-eabi/8.2.1/../../../../arm-none-eabi/lib/thumb/v7e-m+fp/hard\libcr_c.a(memcpy.o)
 .text          0x00000000        0x0 c:/nxp/mcuxpressoide_11.0.1_2563/ide/plugins/com.nxp.mcuxpresso.tools.win32_11.0.1.201907311258/tools/bin/../lib/gcc/arm-none-eabi/8.2.1/../../../../arm-none-eabi/lib/thumb/v7e-m+fp/hard\libcr_c.a(memset.o)
 .data          0x00000000        0x0 c:/nxp/mcuxpressoide_11.0.1_2563/ide/plugins/com.nxp.mcuxpresso.tools.win32_11.0.1.201907311258/tools/bin/../lib/gcc/arm-none-eabi/8.2.1/../../../../arm-none-eabi/lib/thumb/v7e-m+fp/hard\libcr_c.a(memset.o)
 .bss           0x00000000        0x0 c:/nxp/mcuxpressoide_11.0.1_2563/ide/plugins/com.nxp.mcuxpresso.tools.win32_11.0.1.201907311258/tools/bin/../lib/gcc/arm-none-eabi/8.2.1/../../../../arm-none-eabi/lib/thumb/v7e-m+fp/hard\libcr_c.a(memset.o)
 .text          0x00000000        0x0 c:/nxp/mcuxpressoide_11.0.1_2563/ide/plugins/com.nxp.mcuxpresso.tools.win32_11.0.1.201907311258/tools/bin/../lib/gcc/arm-none-eabi/8.2.1/../../../../arm-none-eabi/lib/thumb/v7e-m+fp/hard\libcr_c.a(alloc.o)
 .data          0x00000000        0x0 c:/nxp/mcuxpressoide_11.0.1_2563/ide/plugins/com.nxp.mcuxpresso.tools.win32_11.0.1.201907311258/tools/bin/../lib/gcc/arm-none-eabi/8.2.1/../../../../arm-none-eabi/lib/thumb/v7e-m+fp/hard\libcr_c.a(alloc.o)
 .bss           0x00000000        0x0 c:/nxp/mcuxpressoide_11.0.1_2563/ide/plugins/com.nxp.mcuxpresso.tools.win32_11.0.1.201907311258/tools/bin/../lib/gcc/arm-none-eabi/8.2.1/../../../../arm-none-eabi/lib/thumb/v7e-m+fp/hard\libcr_c.a(alloc.o)
 .text.calloc   0x00000000       0x50 c:/nxp/mcuxpressoide_11.0.1_2563/ide/plugins/com.nxp.mcuxpresso.tools.win32_11.0.1.201907311258/tools/bin/../lib/gcc/arm-none-eabi/8.2.1/../../../../arm-none-eabi/lib/thumb/v7e-m+fp/hard\libcr_c.a(alloc.o)
 .text.realloc  0x00000000       0x24 c:/nxp/mcuxpressoide_11.0.1_2563/ide/plugins/com.nxp.mcuxpresso.tools.win32_11.0.1.201907311258/tools/bin/../lib/gcc/arm-none-eabi/8.2.1/../../../../arm-none-eabi/lib/thumb/v7e-m+fp/hard\libcr_c.a(alloc.o)
 .text          0x00000000        0x0 c:/nxp/mcuxpressoide_11.0.1_2563/ide/plugins/com.nxp.mcuxpresso.tools.win32_11.0.1.201907311258/tools/bin/../lib/gcc/arm-none-eabi/8.2.1/../../../../arm-none-eabi/lib/thumb/v7e-m+fp/hard\libcr_c.a(errno.o)
 .data          0x00000000        0x0 c:/nxp/mcuxpressoide_11.0.1_2563/ide/plugins/com.nxp.mcuxpresso.tools.win32_11.0.1.201907311258/tools/bin/../lib/gcc/arm-none-eabi/8.2.1/../../../../arm-none-eabi/lib/thumb/v7e-m+fp/hard\libcr_c.a(errno.o)
 .bss           0x00000000        0x0 c:/nxp/mcuxpressoide_11.0.1_2563/ide/plugins/com.nxp.mcuxpresso.tools.win32_11.0.1.201907311258/tools/bin/../lib/gcc/arm-none-eabi/8.2.1/../../../../arm-none-eabi/lib/thumb/v7e-m+fp/hard\libcr_c.a(errno.o)
 .text          0x00000000        0x0 c:/nxp/mcuxpressoide_11.0.1_2563/ide/plugins/com.nxp.mcuxpresso.tools.win32_11.0.1.201907311258/tools/bin/../lib/gcc/arm-none-eabi/8.2.1/../../../../arm-none-eabi/lib/thumb/v7e-m+fp/hard\libcr_c.a(initio.o)
 .data          0x00000000        0x0 c:/nxp/mcuxpressoide_11.0.1_2563/ide/plugins/com.nxp.mcuxpresso.tools.win32_11.0.1.201907311258/tools/bin/../lib/gcc/arm-none-eabi/8.2.1/../../../../arm-none-eabi/lib/thumb/v7e-m+fp/hard\libcr_c.a(initio.o)
 .bss           0x00000000        0x0 c:/nxp/mcuxpressoide_11.0.1_2563/ide/plugins/com.nxp.mcuxpresso.tools.win32_11.0.1.201907311258/tools/bin/../lib/gcc/arm-none-eabi/8.2.1/../../../../arm-none-eabi/lib/thumb/v7e-m+fp/hard\libcr_c.a(initio.o)
 .text._terminateio
                0x00000000       0x50 c:/nxp/mcuxpressoide_11.0.1_2563/ide/plugins/com.nxp.mcuxpresso.tools.win32_11.0.1.201907311258/tools/bin/../lib/gcc/arm-none-eabi/8.2.1/../../../../arm-none-eabi/lib/thumb/v7e-m+fp/hard\libcr_c.a(initio.o)
 .text          0x00000000        0x0 c:/nxp/mcuxpressoide_11.0.1_2563/ide/plugins/com.nxp.mcuxpresso.tools.win32_11.0.1.201907311258/tools/bin/../lib/gcc/arm-none-eabi/8.2.1/../../../../arm-none-eabi/lib/thumb/v7e-m+fp/hard\libcr_c.a(printf.o)
 .data          0x00000000        0x0 c:/nxp/mcuxpressoide_11.0.1_2563/ide/plugins/com.nxp.mcuxpresso.tools.win32_11.0.1.201907311258/tools/bin/../lib/gcc/arm-none-eabi/8.2.1/../../../../arm-none-eabi/lib/thumb/v7e-m+fp/hard\libcr_c.a(printf.o)
 .bss           0x00000000        0x0 c:/nxp/mcuxpressoide_11.0.1_2563/ide/plugins/com.nxp.mcuxpresso.tools.win32_11.0.1.201907311258/tools/bin/../lib/gcc/arm-none-eabi/8.2.1/../../../../arm-none-eabi/lib/thumb/v7e-m+fp/hard\libcr_c.a(printf.o)
 .text._fprintf
                0x00000000       0x30 c:/nxp/mcuxpressoide_11.0.1_2563/ide/plugins/com.nxp.mcuxpresso.tools.win32_11.0.1.201907311258/tools/bin/../lib/gcc/arm-none-eabi/8.2.1/../../../../arm-none-eabi/lib/thumb/v7e-m+fp/hard\libcr_c.a(printf.o)
 .text._printf_char
                0x00000000       0x34 c:/nxp/mcuxpressoide_11.0.1_2563/ide/plugins/com.nxp.mcuxpresso.tools.win32_11.0.1.201907311258/tools/bin/../lib/gcc/arm-none-eabi/8.2.1/../../../../arm-none-eabi/lib/thumb/v7e-m+fp/hard\libcr_c.a(printf.o)
 .text._sprintf
                0x00000000       0x6c c:/nxp/mcuxpressoide_11.0.1_2563/ide/plugins/com.nxp.mcuxpresso.tools.win32_11.0.1.201907311258/tools/bin/../lib/gcc/arm-none-eabi/8.2.1/../../../../arm-none-eabi/lib/thumb/v7e-m+fp/hard\libcr_c.a(printf.o)
 .text._snprintf
                0x00000000       0x78 c:/nxp/mcuxpressoide_11.0.1_2563/ide/plugins/com.nxp.mcuxpresso.tools.win32_11.0.1.201907311258/tools/bin/../lib/gcc/arm-none-eabi/8.2.1/../../../../arm-none-eabi/lib/thumb/v7e-m+fp/hard\libcr_c.a(printf.o)
 .text._vfprintf
                0x00000000       0x20 c:/nxp/mcuxpressoide_11.0.1_2563/ide/plugins/com.nxp.mcuxpresso.tools.win32_11.0.1.201907311258/tools/bin/../lib/gcc/arm-none-eabi/8.2.1/../../../../arm-none-eabi/lib/thumb/v7e-m+fp/hard\libcr_c.a(printf.o)
 .text._vprintf
                0x00000000       0x28 c:/nxp/mcuxpressoide_11.0.1_2563/ide/plugins/com.nxp.mcuxpresso.tools.win32_11.0.1.201907311258/tools/bin/../lib/gcc/arm-none-eabi/8.2.1/../../../../arm-none-eabi/lib/thumb/v7e-m+fp/hard\libcr_c.a(printf.o)
 .text._vsprintf
                0x00000000       0x5c c:/nxp/mcuxpressoide_11.0.1_2563/ide/plugins/com.nxp.mcuxpresso.tools.win32_11.0.1.201907311258/tools/bin/../lib/gcc/arm-none-eabi/8.2.1/../../../../arm-none-eabi/lib/thumb/v7e-m+fp/hard\libcr_c.a(printf.o)
 .text          0x00000000        0x0 c:/nxp/mcuxpressoide_11.0.1_2563/ide/plugins/com.nxp.mcuxpresso.tools.win32_11.0.1.201907311258/tools/bin/../lib/gcc/arm-none-eabi/8.2.1/../../../../arm-none-eabi/lib/thumb/v7e-m+fp/hard\libcr_c.a(setvbuf.o)
 .data          0x00000000        0x0 c:/nxp/mcuxpressoide_11.0.1_2563/ide/plugins/com.nxp.mcuxpresso.tools.win32_11.0.1.201907311258/tools/bin/../lib/gcc/arm-none-eabi/8.2.1/../../../../arm-none-eabi/lib/thumb/v7e-m+fp/hard\libcr_c.a(setvbuf.o)
 .bss           0x00000000        0x0 c:/nxp/mcuxpressoide_11.0.1_2563/ide/plugins/com.nxp.mcuxpresso.tools.win32_11.0.1.201907311258/tools/bin/../lib/gcc/arm-none-eabi/8.2.1/../../../../arm-none-eabi/lib/thumb/v7e-m+fp/hard\libcr_c.a(setvbuf.o)
 .text          0x00000000        0x0 c:/nxp/mcuxpressoide_11.0.1_2563/ide/plugins/com.nxp.mcuxpresso.tools.win32_11.0.1.201907311258/tools/bin/../lib/gcc/arm-none-eabi/8.2.1/../../../../arm-none-eabi/lib/thumb/v7e-m+fp/hard\libcr_c.a(strlen.o)
 .data          0x00000000        0x0 c:/nxp/mcuxpressoide_11.0.1_2563/ide/plugins/com.nxp.mcuxpresso.tools.win32_11.0.1.201907311258/tools/bin/../lib/gcc/arm-none-eabi/8.2.1/../../../../arm-none-eabi/lib/thumb/v7e-m+fp/hard\libcr_c.a(strlen.o)
 .bss           0x00000000        0x0 c:/nxp/mcuxpressoide_11.0.1_2563/ide/plugins/com.nxp.mcuxpresso.tools.win32_11.0.1.201907311258/tools/bin/../lib/gcc/arm-none-eabi/8.2.1/../../../../arm-none-eabi/lib/thumb/v7e-m+fp/hard\libcr_c.a(strlen.o)
 .text          0x00000000        0x0 c:/nxp/mcuxpressoide_11.0.1_2563/ide/plugins/com.nxp.mcuxpresso.tools.win32_11.0.1.201907311258/tools/bin/../lib/gcc/arm-none-eabi/8.2.1/../../../../arm-none-eabi/lib/thumb/v7e-m+fp/hard\libcr_c.a(expf.o)
 .data          0x00000000        0x0 c:/nxp/mcuxpressoide_11.0.1_2563/ide/plugins/com.nxp.mcuxpresso.tools.win32_11.0.1.201907311258/tools/bin/../lib/gcc/arm-none-eabi/8.2.1/../../../../arm-none-eabi/lib/thumb/v7e-m+fp/hard\libcr_c.a(expf.o)
 .bss           0x00000000        0x0 c:/nxp/mcuxpressoide_11.0.1_2563/ide/plugins/com.nxp.mcuxpresso.tools.win32_11.0.1.201907311258/tools/bin/../lib/gcc/arm-none-eabi/8.2.1/../../../../arm-none-eabi/lib/thumb/v7e-m+fp/hard\libcr_c.a(expf.o)
 .text          0x00000000        0x0 c:/nxp/mcuxpressoide_11.0.1_2563/ide/plugins/com.nxp.mcuxpresso.tools.win32_11.0.1.201907311258/tools/bin/../lib/gcc/arm-none-eabi/8.2.1/../../../../arm-none-eabi/lib/thumb/v7e-m+fp/hard\libcr_c.a(frexpf.o)
 .data          0x00000000        0x0 c:/nxp/mcuxpressoide_11.0.1_2563/ide/plugins/com.nxp.mcuxpresso.tools.win32_11.0.1.201907311258/tools/bin/../lib/gcc/arm-none-eabi/8.2.1/../../../../arm-none-eabi/lib/thumb/v7e-m+fp/hard\libcr_c.a(frexpf.o)
 .bss           0x00000000        0x0 c:/nxp/mcuxpressoide_11.0.1_2563/ide/plugins/com.nxp.mcuxpresso.tools.win32_11.0.1.201907311258/tools/bin/../lib/gcc/arm-none-eabi/8.2.1/../../../../arm-none-eabi/lib/thumb/v7e-m+fp/hard\libcr_c.a(frexpf.o)
 .text          0x00000000        0x0 c:/nxp/mcuxpressoide_11.0.1_2563/ide/plugins/com.nxp.mcuxpresso.tools.win32_11.0.1.201907311258/tools/bin/../lib/gcc/arm-none-eabi/8.2.1/../../../../arm-none-eabi/lib/thumb/v7e-m+fp/hard\libcr_c.a(ldexpf.o)
 .data          0x00000000        0x0 c:/nxp/mcuxpressoide_11.0.1_2563/ide/plugins/com.nxp.mcuxpresso.tools.win32_11.0.1.201907311258/tools/bin/../lib/gcc/arm-none-eabi/8.2.1/../../../../arm-none-eabi/lib/thumb/v7e-m+fp/hard\libcr_c.a(ldexpf.o)
 .bss           0x00000000        0x0 c:/nxp/mcuxpressoide_11.0.1_2563/ide/plugins/com.nxp.mcuxpresso.tools.win32_11.0.1.201907311258/tools/bin/../lib/gcc/arm-none-eabi/8.2.1/../../../../arm-none-eabi/lib/thumb/v7e-m+fp/hard\libcr_c.a(ldexpf.o)
 .text          0x00000000        0x0 c:/nxp/mcuxpressoide_11.0.1_2563/ide/plugins/com.nxp.mcuxpresso.tools.win32_11.0.1.201907311258/tools/bin/../lib/gcc/arm-none-eabi/8.2.1/../../../../arm-none-eabi/lib/thumb/v7e-m+fp/hard\libcr_c.a(__init_alloc.o)
 .data          0x00000000        0x0 c:/nxp/mcuxpressoide_11.0.1_2563/ide/plugins/com.nxp.mcuxpresso.tools.win32_11.0.1.201907311258/tools/bin/../lib/gcc/arm-none-eabi/8.2.1/../../../../arm-none-eabi/lib/thumb/v7e-m+fp/hard\libcr_c.a(__init_alloc.o)
 .bss           0x00000000        0x0 c:/nxp/mcuxpressoide_11.0.1_2563/ide/plugins/com.nxp.mcuxpresso.tools.win32_11.0.1.201907311258/tools/bin/../lib/gcc/arm-none-eabi/8.2.1/../../../../arm-none-eabi/lib/thumb/v7e-m+fp/hard\libcr_c.a(__init_alloc.o)
 .text._init_alloc
                0x00000000       0x14 c:/nxp/mcuxpressoide_11.0.1_2563/ide/plugins/com.nxp.mcuxpresso.tools.win32_11.0.1.201907311258/tools/bin/../lib/gcc/arm-none-eabi/8.2.1/../../../../arm-none-eabi/lib/thumb/v7e-m+fp/hard\libcr_c.a(__init_alloc.o)
 .text          0x00000000        0x0 c:/nxp/mcuxpressoide_11.0.1_2563/ide/plugins/com.nxp.mcuxpresso.tools.win32_11.0.1.201907311258/tools/bin/../lib/gcc/arm-none-eabi/8.2.1/../../../../arm-none-eabi/lib/thumb/v7e-m+fp/hard\libcr_c.a(_cr_sbrk.o)
 .data          0x00000000        0x0 c:/nxp/mcuxpressoide_11.0.1_2563/ide/plugins/com.nxp.mcuxpresso.tools.win32_11.0.1.201907311258/tools/bin/../lib/gcc/arm-none-eabi/8.2.1/../../../../arm-none-eabi/lib/thumb/v7e-m+fp/hard\libcr_c.a(_cr_sbrk.o)
 .bss           0x00000000        0x0 c:/nxp/mcuxpressoide_11.0.1_2563/ide/plugins/com.nxp.mcuxpresso.tools.win32_11.0.1.201907311258/tools/bin/../lib/gcc/arm-none-eabi/8.2.1/../../../../arm-none-eabi/lib/thumb/v7e-m+fp/hard\libcr_c.a(_cr_sbrk.o)
 .text          0x00000000        0x0 c:/nxp/mcuxpressoide_11.0.1_2563/ide/plugins/com.nxp.mcuxpresso.tools.win32_11.0.1.201907311258/tools/bin/../lib/gcc/arm-none-eabi/8.2.1/../../../../arm-none-eabi/lib/thumb/v7e-m+fp/hard\libcr_c.a(_deferredlazyseek.o)
 .data          0x00000000        0x0 c:/nxp/mcuxpressoide_11.0.1_2563/ide/plugins/com.nxp.mcuxpresso.tools.win32_11.0.1.201907311258/tools/bin/../lib/gcc/arm-none-eabi/8.2.1/../../../../arm-none-eabi/lib/thumb/v7e-m+fp/hard\libcr_c.a(_deferredlazyseek.o)
 .bss           0x00000000        0x0 c:/nxp/mcuxpressoide_11.0.1_2563/ide/plugins/com.nxp.mcuxpresso.tools.win32_11.0.1.201907311258/tools/bin/../lib/gcc/arm-none-eabi/8.2.1/../../../../arm-none-eabi/lib/thumb/v7e-m+fp/hard\libcr_c.a(_deferredlazyseek.o)
 .text          0x00000000        0x0 c:/nxp/mcuxpressoide_11.0.1_2563/ide/plugins/com.nxp.mcuxpresso.tools.win32_11.0.1.201907311258/tools/bin/../lib/gcc/arm-none-eabi/8.2.1/../../../../arm-none-eabi/lib/thumb/v7e-m+fp/hard\libcr_c.a(_fdopen.o)
 .data          0x00000000        0x0 c:/nxp/mcuxpressoide_11.0.1_2563/ide/plugins/com.nxp.mcuxpresso.tools.win32_11.0.1.201907311258/tools/bin/../lib/gcc/arm-none-eabi/8.2.1/../../../../arm-none-eabi/lib/thumb/v7e-m+fp/hard\libcr_c.a(_fdopen.o)
 .bss           0x00000000        0x0 c:/nxp/mcuxpressoide_11.0.1_2563/ide/plugins/com.nxp.mcuxpresso.tools.win32_11.0.1.201907311258/tools/bin/../lib/gcc/arm-none-eabi/8.2.1/../../../../arm-none-eabi/lib/thumb/v7e-m+fp/hard\libcr_c.a(_fdopen.o)
 .text          0x00000000        0x0 c:/nxp/mcuxpressoide_11.0.1_2563/ide/plugins/com.nxp.mcuxpresso.tools.win32_11.0.1.201907311258/tools/bin/../lib/gcc/arm-none-eabi/8.2.1/../../../../arm-none-eabi/lib/thumb/v7e-m+fp/hard\libcr_c.a(_fflush.o)
 .data          0x00000000        0x0 c:/nxp/mcuxpressoide_11.0.1_2563/ide/plugins/com.nxp.mcuxpresso.tools.win32_11.0.1.201907311258/tools/bin/../lib/gcc/arm-none-eabi/8.2.1/../../../../arm-none-eabi/lib/thumb/v7e-m+fp/hard\libcr_c.a(_fflush.o)
 .bss           0x00000000        0x0 c:/nxp/mcuxpressoide_11.0.1_2563/ide/plugins/com.nxp.mcuxpresso.tools.win32_11.0.1.201907311258/tools/bin/../lib/gcc/arm-none-eabi/8.2.1/../../../../arm-none-eabi/lib/thumb/v7e-m+fp/hard\libcr_c.a(_fflush.o)
 .text          0x00000000        0x0 c:/nxp/mcuxpressoide_11.0.1_2563/ide/plugins/com.nxp.mcuxpresso.tools.win32_11.0.1.201907311258/tools/bin/../lib/gcc/arm-none-eabi/8.2.1/../../../../arm-none-eabi/lib/thumb/v7e-m+fp/hard\libcr_c.a(_writebuf.o)
 .data          0x00000000        0x0 c:/nxp/mcuxpressoide_11.0.1_2563/ide/plugins/com.nxp.mcuxpresso.tools.win32_11.0.1.201907311258/tools/bin/../lib/gcc/arm-none-eabi/8.2.1/../../../../arm-none-eabi/lib/thumb/v7e-m+fp/hard\libcr_c.a(_writebuf.o)
 .bss           0x00000000        0x0 c:/nxp/mcuxpressoide_11.0.1_2563/ide/plugins/com.nxp.mcuxpresso.tools.win32_11.0.1.201907311258/tools/bin/../lib/gcc/arm-none-eabi/8.2.1/../../../../arm-none-eabi/lib/thumb/v7e-m+fp/hard\libcr_c.a(_writebuf.o)
 .text          0x00000000        0x0 c:/nxp/mcuxpressoide_11.0.1_2563/ide/plugins/com.nxp.mcuxpresso.tools.win32_11.0.1.201907311258/tools/bin/../lib/gcc/arm-none-eabi/8.2.1/../../../../arm-none-eabi/lib/thumb/v7e-m+fp/hard\libcr_c.a(fclose.o)
 .data          0x00000000        0x0 c:/nxp/mcuxpressoide_11.0.1_2563/ide/plugins/com.nxp.mcuxpresso.tools.win32_11.0.1.201907311258/tools/bin/../lib/gcc/arm-none-eabi/8.2.1/../../../../arm-none-eabi/lib/thumb/v7e-m+fp/hard\libcr_c.a(fclose.o)
 .bss           0x00000000        0x0 c:/nxp/mcuxpressoide_11.0.1_2563/ide/plugins/com.nxp.mcuxpresso.tools.win32_11.0.1.201907311258/tools/bin/../lib/gcc/arm-none-eabi/8.2.1/../../../../arm-none-eabi/lib/thumb/v7e-m+fp/hard\libcr_c.a(fclose.o)
 .text          0x00000000        0x0 c:/nxp/mcuxpressoide_11.0.1_2563/ide/plugins/com.nxp.mcuxpresso.tools.win32_11.0.1.201907311258/tools/bin/../lib/gcc/arm-none-eabi/8.2.1/../../../../arm-none-eabi/lib/thumb/v7e-m+fp/hard\libcr_c.a(fflush.o)
 .data          0x00000000        0x0 c:/nxp/mcuxpressoide_11.0.1_2563/ide/plugins/com.nxp.mcuxpresso.tools.win32_11.0.1.201907311258/tools/bin/../lib/gcc/arm-none-eabi/8.2.1/../../../../arm-none-eabi/lib/thumb/v7e-m+fp/hard\libcr_c.a(fflush.o)
 .bss           0x00000000        0x0 c:/nxp/mcuxpressoide_11.0.1_2563/ide/plugins/com.nxp.mcuxpresso.tools.win32_11.0.1.201907311258/tools/bin/../lib/gcc/arm-none-eabi/8.2.1/../../../../arm-none-eabi/lib/thumb/v7e-m+fp/hard\libcr_c.a(fflush.o)
 .text          0x00000000        0x0 c:/nxp/mcuxpressoide_11.0.1_2563/ide/plugins/com.nxp.mcuxpresso.tools.win32_11.0.1.201907311258/tools/bin/../lib/gcc/arm-none-eabi/8.2.1/../../../../arm-none-eabi/lib/thumb/v7e-m+fp/hard\libcr_c.a(fseek.o)
 .data          0x00000000        0x0 c:/nxp/mcuxpressoide_11.0.1_2563/ide/plugins/com.nxp.mcuxpresso.tools.win32_11.0.1.201907311258/tools/bin/../lib/gcc/arm-none-eabi/8.2.1/../../../../arm-none-eabi/lib/thumb/v7e-m+fp/hard\libcr_c.a(fseek.o)
 .bss           0x00000000        0x0 c:/nxp/mcuxpressoide_11.0.1_2563/ide/plugins/com.nxp.mcuxpresso.tools.win32_11.0.1.201907311258/tools/bin/../lib/gcc/arm-none-eabi/8.2.1/../../../../arm-none-eabi/lib/thumb/v7e-m+fp/hard\libcr_c.a(fseek.o)
 .text          0x00000000        0x0 c:/nxp/mcuxpressoide_11.0.1_2563/ide/plugins/com.nxp.mcuxpresso.tools.win32_11.0.1.201907311258/tools/bin/../lib/gcc/arm-none-eabi/8.2.1/../../../../arm-none-eabi/lib/thumb/v7e-m+fp/hard\libcr_c.a(ftell.o)
 .data          0x00000000        0x0 c:/nxp/mcuxpressoide_11.0.1_2563/ide/plugins/com.nxp.mcuxpresso.tools.win32_11.0.1.201907311258/tools/bin/../lib/gcc/arm-none-eabi/8.2.1/../../../../arm-none-eabi/lib/thumb/v7e-m+fp/hard\libcr_c.a(ftell.o)
 .bss           0x00000000        0x0 c:/nxp/mcuxpressoide_11.0.1_2563/ide/plugins/com.nxp.mcuxpresso.tools.win32_11.0.1.201907311258/tools/bin/../lib/gcc/arm-none-eabi/8.2.1/../../../../arm-none-eabi/lib/thumb/v7e-m+fp/hard\libcr_c.a(ftell.o)
 .text          0x00000000        0x0 c:/nxp/mcuxpressoide_11.0.1_2563/ide/plugins/com.nxp.mcuxpresso.tools.win32_11.0.1.201907311258/tools/bin/../lib/gcc/arm-none-eabi/8.2.1/../../../../arm-none-eabi/lib/thumb/v7e-m+fp/hard\libcr_c.a(remove.o)
 .data          0x00000000        0x0 c:/nxp/mcuxpressoide_11.0.1_2563/ide/plugins/com.nxp.mcuxpresso.tools.win32_11.0.1.201907311258/tools/bin/../lib/gcc/arm-none-eabi/8.2.1/../../../../arm-none-eabi/lib/thumb/v7e-m+fp/hard\libcr_c.a(remove.o)
 .bss           0x00000000        0x0 c:/nxp/mcuxpressoide_11.0.1_2563/ide/plugins/com.nxp.mcuxpresso.tools.win32_11.0.1.201907311258/tools/bin/../lib/gcc/arm-none-eabi/8.2.1/../../../../arm-none-eabi/lib/thumb/v7e-m+fp/hard\libcr_c.a(remove.o)
 .text.rename   0x00000000       0x28 c:/nxp/mcuxpressoide_11.0.1_2563/ide/plugins/com.nxp.mcuxpresso.tools.win32_11.0.1.201907311258/tools/bin/../lib/gcc/arm-none-eabi/8.2.1/../../../../arm-none-eabi/lib/thumb/v7e-m+fp/hard\libcr_c.a(remove.o)
 .text          0x00000000        0x0 c:/nxp/mcuxpressoide_11.0.1_2563/ide/plugins/com.nxp.mcuxpresso.tools.win32_11.0.1.201907311258/tools/bin/../lib/gcc/arm-none-eabi/8.2.1/../../../../arm-none-eabi/lib/thumb/v7e-m+fp/hard\libcr_c.a(_cr_check_heap.o)
 .data          0x00000000        0x0 c:/nxp/mcuxpressoide_11.0.1_2563/ide/plugins/com.nxp.mcuxpresso.tools.win32_11.0.1.201907311258/tools/bin/../lib/gcc/arm-none-eabi/8.2.1/../../../../arm-none-eabi/lib/thumb/v7e-m+fp/hard\libcr_c.a(_cr_check_heap.o)
 .bss           0x00000000        0x0 c:/nxp/mcuxpressoide_11.0.1_2563/ide/plugins/com.nxp.mcuxpresso.tools.win32_11.0.1.201907311258/tools/bin/../lib/gcc/arm-none-eabi/8.2.1/../../../../arm-none-eabi/lib/thumb/v7e-m+fp/hard\libcr_c.a(_cr_check_heap.o)
 .text          0x00000000        0x0 c:/nxp/mcuxpressoide_11.0.1_2563/ide/plugins/com.nxp.mcuxpresso.tools.win32_11.0.1.201907311258/tools/bin/../lib/gcc/arm-none-eabi/8.2.1/../../../../arm-none-eabi/lib/thumb/v7e-m+fp/hard\libcr_c.a(_do_fflush.o)
 .data          0x00000000        0x0 c:/nxp/mcuxpressoide_11.0.1_2563/ide/plugins/com.nxp.mcuxpresso.tools.win32_11.0.1.201907311258/tools/bin/../lib/gcc/arm-none-eabi/8.2.1/../../../../arm-none-eabi/lib/thumb/v7e-m+fp/hard\libcr_c.a(_do_fflush.o)
 .bss           0x00000000        0x0 c:/nxp/mcuxpressoide_11.0.1_2563/ide/plugins/com.nxp.mcuxpresso.tools.win32_11.0.1.201907311258/tools/bin/../lib/gcc/arm-none-eabi/8.2.1/../../../../arm-none-eabi/lib/thumb/v7e-m+fp/hard\libcr_c.a(_do_fflush.o)
 .text          0x00000000        0x0 c:/nxp/mcuxpressoide_11.0.1_2563/ide/plugins/com.nxp.mcuxpresso.tools.win32_11.0.1.201907311258/tools/bin/../lib/gcc/arm-none-eabi/8.2.1/thumb/v7e-m+fp/hard\libcr_eabihelpers.a(division_64.o)
 .data          0x00000000        0x0 c:/nxp/mcuxpressoide_11.0.1_2563/ide/plugins/com.nxp.mcuxpresso.tools.win32_11.0.1.201907311258/tools/bin/../lib/gcc/arm-none-eabi/8.2.1/thumb/v7e-m+fp/hard\libcr_eabihelpers.a(division_64.o)
 .bss           0x00000000        0x0 c:/nxp/mcuxpressoide_11.0.1_2563/ide/plugins/com.nxp.mcuxpresso.tools.win32_11.0.1.201907311258/tools/bin/../lib/gcc/arm-none-eabi/8.2.1/thumb/v7e-m+fp/hard\libcr_eabihelpers.a(division_64.o)
 .text.__aeabi_division_ldivmod
                0x00000000       0x26 c:/nxp/mcuxpressoide_11.0.1_2563/ide/plugins/com.nxp.mcuxpresso.tools.win32_11.0.1.201907311258/tools/bin/../lib/gcc/arm-none-eabi/8.2.1/thumb/v7e-m+fp/hard\libcr_eabihelpers.a(division_64.o)
 .text          0x00000000        0x0 c:/nxp/mcuxpressoide_11.0.1_2563/ide/plugins/com.nxp.mcuxpresso.tools.win32_11.0.1.201907311258/tools/bin/../lib/gcc/arm-none-eabi/8.2.1/thumb/v7e-m+fp/hard\libcr_eabihelpers.a(division_idiv0.o)
 .data          0x00000000        0x0 c:/nxp/mcuxpressoide_11.0.1_2563/ide/plugins/com.nxp.mcuxpresso.tools.win32_11.0.1.201907311258/tools/bin/../lib/gcc/arm-none-eabi/8.2.1/thumb/v7e-m+fp/hard\libcr_eabihelpers.a(division_idiv0.o)
 .bss           0x00000000        0x0 c:/nxp/mcuxpressoide_11.0.1_2563/ide/plugins/com.nxp.mcuxpresso.tools.win32_11.0.1.201907311258/tools/bin/../lib/gcc/arm-none-eabi/8.2.1/thumb/v7e-m+fp/hard\libcr_eabihelpers.a(division_idiv0.o)
 .text          0x00000000        0x0 c:/nxp/mcuxpressoide_11.0.1_2563/ide/plugins/com.nxp.mcuxpresso.tools.win32_11.0.1.201907311258/tools/bin/../lib/gcc/arm-none-eabi/8.2.1/thumb/v7e-m+fp/hard\libcr_eabihelpers.a(double.o)
 .data          0x00000000        0x0 c:/nxp/mcuxpressoide_11.0.1_2563/ide/plugins/com.nxp.mcuxpresso.tools.win32_11.0.1.201907311258/tools/bin/../lib/gcc/arm-none-eabi/8.2.1/thumb/v7e-m+fp/hard\libcr_eabihelpers.a(double.o)
 .bss           0x00000000        0x0 c:/nxp/mcuxpressoide_11.0.1_2563/ide/plugins/com.nxp.mcuxpresso.tools.win32_11.0.1.201907311258/tools/bin/../lib/gcc/arm-none-eabi/8.2.1/thumb/v7e-m+fp/hard\libcr_eabihelpers.a(double.o)
 .text.__aeabi_drsub
                0x00000000       0x18 c:/nxp/mcuxpressoide_11.0.1_2563/ide/plugins/com.nxp.mcuxpresso.tools.win32_11.0.1.201907311258/tools/bin/../lib/gcc/arm-none-eabi/8.2.1/thumb/v7e-m+fp/hard\libcr_eabihelpers.a(double.o)
 .text.__aeabi_dneg
                0x00000000        0xe c:/nxp/mcuxpressoide_11.0.1_2563/ide/plugins/com.nxp.mcuxpresso.tools.win32_11.0.1.201907311258/tools/bin/../lib/gcc/arm-none-eabi/8.2.1/thumb/v7e-m+fp/hard\libcr_eabihelpers.a(double.o)
 .text.__aeabi_d2uiz
                0x00000000       0x32 c:/nxp/mcuxpressoide_11.0.1_2563/ide/plugins/com.nxp.mcuxpresso.tools.win32_11.0.1.201907311258/tools/bin/../lib/gcc/arm-none-eabi/8.2.1/thumb/v7e-m+fp/hard\libcr_eabihelpers.a(double.o)
 .text.__aeabi_d2lz
                0x00000000       0x6e c:/nxp/mcuxpressoide_11.0.1_2563/ide/plugins/com.nxp.mcuxpresso.tools.win32_11.0.1.201907311258/tools/bin/../lib/gcc/arm-none-eabi/8.2.1/thumb/v7e-m+fp/hard\libcr_eabihelpers.a(double.o)
 .text.__aeabi_d2ulz
                0x00000000       0x56 c:/nxp/mcuxpressoide_11.0.1_2563/ide/plugins/com.nxp.mcuxpresso.tools.win32_11.0.1.201907311258/tools/bin/../lib/gcc/arm-none-eabi/8.2.1/thumb/v7e-m+fp/hard\libcr_eabihelpers.a(double.o)
 .text.__bhs_ul2d
                0x00000000       0x8a c:/nxp/mcuxpressoide_11.0.1_2563/ide/plugins/com.nxp.mcuxpresso.tools.win32_11.0.1.201907311258/tools/bin/../lib/gcc/arm-none-eabi/8.2.1/thumb/v7e-m+fp/hard\libcr_eabihelpers.a(double.o)
 .text.__aeabi_i2d
                0x00000000       0x12 c:/nxp/mcuxpressoide_11.0.1_2563/ide/plugins/com.nxp.mcuxpresso.tools.win32_11.0.1.201907311258/tools/bin/../lib/gcc/arm-none-eabi/8.2.1/thumb/v7e-m+fp/hard\libcr_eabihelpers.a(double.o)
 .text.__aeabi_l2d
                0x00000000       0x1a c:/nxp/mcuxpressoide_11.0.1_2563/ide/plugins/com.nxp.mcuxpresso.tools.win32_11.0.1.201907311258/tools/bin/../lib/gcc/arm-none-eabi/8.2.1/thumb/v7e-m+fp/hard\libcr_eabihelpers.a(double.o)
 .text.__aeabi_ul2d
                0x00000000        0x8 c:/nxp/mcuxpressoide_11.0.1_2563/ide/plugins/com.nxp.mcuxpresso.tools.win32_11.0.1.201907311258/tools/bin/../lib/gcc/arm-none-eabi/8.2.1/thumb/v7e-m+fp/hard\libcr_eabihelpers.a(double.o)
 .text.__aeabi_dcmpeq
                0x00000000       0x2e c:/nxp/mcuxpressoide_11.0.1_2563/ide/plugins/com.nxp.mcuxpresso.tools.win32_11.0.1.201907311258/tools/bin/../lib/gcc/arm-none-eabi/8.2.1/thumb/v7e-m+fp/hard\libcr_eabihelpers.a(double.o)
 .text.__aeabi_dcmplt
                0x00000000       0x56 c:/nxp/mcuxpressoide_11.0.1_2563/ide/plugins/com.nxp.mcuxpresso.tools.win32_11.0.1.201907311258/tools/bin/../lib/gcc/arm-none-eabi/8.2.1/thumb/v7e-m+fp/hard\libcr_eabihelpers.a(double.o)
 .text.__aeabi_dcmpgt
                0x00000000       0x56 c:/nxp/mcuxpressoide_11.0.1_2563/ide/plugins/com.nxp.mcuxpresso.tools.win32_11.0.1.201907311258/tools/bin/../lib/gcc/arm-none-eabi/8.2.1/thumb/v7e-m+fp/hard\libcr_eabihelpers.a(double.o)
 .text.__aeabi_dcmpun
                0x00000000       0x1a c:/nxp/mcuxpressoide_11.0.1_2563/ide/plugins/com.nxp.mcuxpresso.tools.win32_11.0.1.201907311258/tools/bin/../lib/gcc/arm-none-eabi/8.2.1/thumb/v7e-m+fp/hard\libcr_eabihelpers.a(double.o)
 .text.__aeabi_cdcmple
                0x00000000       0x2c c:/nxp/mcuxpressoide_11.0.1_2563/ide/plugins/com.nxp.mcuxpresso.tools.win32_11.0.1.201907311258/tools/bin/../lib/gcc/arm-none-eabi/8.2.1/thumb/v7e-m+fp/hard\libcr_eabihelpers.a(double.o)
 .text.__aeabi_cdrcmple
                0x00000000       0x14 c:/nxp/mcuxpressoide_11.0.1_2563/ide/plugins/com.nxp.mcuxpresso.tools.win32_11.0.1.201907311258/tools/bin/../lib/gcc/arm-none-eabi/8.2.1/thumb/v7e-m+fp/hard\libcr_eabihelpers.a(double.o)
 .text          0x00000000        0x0 c:/nxp/mcuxpressoide_11.0.1_2563/ide/plugins/com.nxp.mcuxpresso.tools.win32_11.0.1.201907311258/tools/bin/../lib/gcc/arm-none-eabi/8.2.1/thumb/v7e-m+fp/hard\libcr_eabihelpers.a(float.o)
 .data          0x00000000        0x0 c:/nxp/mcuxpressoide_11.0.1_2563/ide/plugins/com.nxp.mcuxpresso.tools.win32_11.0.1.201907311258/tools/bin/../lib/gcc/arm-none-eabi/8.2.1/thumb/v7e-m+fp/hard\libcr_eabihelpers.a(float.o)
 .bss           0x00000000        0x0 c:/nxp/mcuxpressoide_11.0.1_2563/ide/plugins/com.nxp.mcuxpresso.tools.win32_11.0.1.201907311258/tools/bin/../lib/gcc/arm-none-eabi/8.2.1/thumb/v7e-m+fp/hard\libcr_eabihelpers.a(float.o)
 .text.__aeabi_fmul
                0x00000000       0xb0 c:/nxp/mcuxpressoide_11.0.1_2563/ide/plugins/com.nxp.mcuxpresso.tools.win32_11.0.1.201907311258/tools/bin/../lib/gcc/arm-none-eabi/8.2.1/thumb/v7e-m+fp/hard\libcr_eabihelpers.a(float.o)
 .text.__aeabi_fdiv
                0x00000000       0xc8 c:/nxp/mcuxpressoide_11.0.1_2563/ide/plugins/com.nxp.mcuxpresso.tools.win32_11.0.1.201907311258/tools/bin/../lib/gcc/arm-none-eabi/8.2.1/thumb/v7e-m+fp/hard\libcr_eabihelpers.a(float.o)
 .text.__aeabi_fsub
                0x00000000       0xf4 c:/nxp/mcuxpressoide_11.0.1_2563/ide/plugins/com.nxp.mcuxpresso.tools.win32_11.0.1.201907311258/tools/bin/../lib/gcc/arm-none-eabi/8.2.1/thumb/v7e-m+fp/hard\libcr_eabihelpers.a(float.o)
 .text.__aeabi_fadd
                0x00000000       0xc4 c:/nxp/mcuxpressoide_11.0.1_2563/ide/plugins/com.nxp.mcuxpresso.tools.win32_11.0.1.201907311258/tools/bin/../lib/gcc/arm-none-eabi/8.2.1/thumb/v7e-m+fp/hard\libcr_eabihelpers.a(float.o)
 .text.__aeabi_frsub
                0x00000000        0xc c:/nxp/mcuxpressoide_11.0.1_2563/ide/plugins/com.nxp.mcuxpresso.tools.win32_11.0.1.201907311258/tools/bin/../lib/gcc/arm-none-eabi/8.2.1/thumb/v7e-m+fp/hard\libcr_eabihelpers.a(float.o)
 .text.__aeabi_fneg
                0x00000000        0x6 c:/nxp/mcuxpressoide_11.0.1_2563/ide/plugins/com.nxp.mcuxpresso.tools.win32_11.0.1.201907311258/tools/bin/../lib/gcc/arm-none-eabi/8.2.1/thumb/v7e-m+fp/hard\libcr_eabihelpers.a(float.o)
 .text.__aeabi_f2iz
                0x00000000       0x36 c:/nxp/mcuxpressoide_11.0.1_2563/ide/plugins/com.nxp.mcuxpresso.tools.win32_11.0.1.201907311258/tools/bin/../lib/gcc/arm-none-eabi/8.2.1/thumb/v7e-m+fp/hard\libcr_eabihelpers.a(float.o)
 .text.__aeabi_f2uiz
                0x00000000       0x28 c:/nxp/mcuxpressoide_11.0.1_2563/ide/plugins/com.nxp.mcuxpresso.tools.win32_11.0.1.201907311258/tools/bin/../lib/gcc/arm-none-eabi/8.2.1/thumb/v7e-m+fp/hard\libcr_eabihelpers.a(float.o)
 .text.__aeabi_f2lz
                0x00000000       0x5c c:/nxp/mcuxpressoide_11.0.1_2563/ide/plugins/com.nxp.mcuxpresso.tools.win32_11.0.1.201907311258/tools/bin/../lib/gcc/arm-none-eabi/8.2.1/thumb/v7e-m+fp/hard\libcr_eabihelpers.a(float.o)
 .text.__aeabi_f2ulz
                0x00000000       0x3e c:/nxp/mcuxpressoide_11.0.1_2563/ide/plugins/com.nxp.mcuxpresso.tools.win32_11.0.1.201907311258/tools/bin/../lib/gcc/arm-none-eabi/8.2.1/thumb/v7e-m+fp/hard\libcr_eabihelpers.a(float.o)
 .text.__bhs_ui2f
                0x00000000       0x26 c:/nxp/mcuxpressoide_11.0.1_2563/ide/plugins/com.nxp.mcuxpresso.tools.win32_11.0.1.201907311258/tools/bin/../lib/gcc/arm-none-eabi/8.2.1/thumb/v7e-m+fp/hard\libcr_eabihelpers.a(float.o)
 .text.__bhs_ul2f
                0x00000000       0x46 c:/nxp/mcuxpressoide_11.0.1_2563/ide/plugins/com.nxp.mcuxpresso.tools.win32_11.0.1.201907311258/tools/bin/../lib/gcc/arm-none-eabi/8.2.1/thumb/v7e-m+fp/hard\libcr_eabihelpers.a(float.o)
 .text.__aeabi_i2f
                0x00000000       0x12 c:/nxp/mcuxpressoide_11.0.1_2563/ide/plugins/com.nxp.mcuxpresso.tools.win32_11.0.1.201907311258/tools/bin/../lib/gcc/arm-none-eabi/8.2.1/thumb/v7e-m+fp/hard\libcr_eabihelpers.a(float.o)
 .text.__aeabi_ui2f
                0x00000000        0x8 c:/nxp/mcuxpressoide_11.0.1_2563/ide/plugins/com.nxp.mcuxpresso.tools.win32_11.0.1.201907311258/tools/bin/../lib/gcc/arm-none-eabi/8.2.1/thumb/v7e-m+fp/hard\libcr_eabihelpers.a(float.o)
 .text.__aeabi_l2f
                0x00000000       0x1a c:/nxp/mcuxpressoide_11.0.1_2563/ide/plugins/com.nxp.mcuxpresso.tools.win32_11.0.1.201907311258/tools/bin/../lib/gcc/arm-none-eabi/8.2.1/thumb/v7e-m+fp/hard\libcr_eabihelpers.a(float.o)
 .text.__aeabi_ul2f
                0x00000000        0x8 c:/nxp/mcuxpressoide_11.0.1_2563/ide/plugins/com.nxp.mcuxpresso.tools.win32_11.0.1.201907311258/tools/bin/../lib/gcc/arm-none-eabi/8.2.1/thumb/v7e-m+fp/hard\libcr_eabihelpers.a(float.o)
 .text.__aeabi_fcmpeq
                0x00000000       0x1e c:/nxp/mcuxpressoide_11.0.1_2563/ide/plugins/com.nxp.mcuxpresso.tools.win32_11.0.1.201907311258/tools/bin/../lib/gcc/arm-none-eabi/8.2.1/thumb/v7e-m+fp/hard\libcr_eabihelpers.a(float.o)
 .text.__aeabi_fcmplt
                0x00000000       0x3a c:/nxp/mcuxpressoide_11.0.1_2563/ide/plugins/com.nxp.mcuxpresso.tools.win32_11.0.1.201907311258/tools/bin/../lib/gcc/arm-none-eabi/8.2.1/thumb/v7e-m+fp/hard\libcr_eabihelpers.a(float.o)
 .text.__aeabi_fcmpgt
                0x00000000       0x3a c:/nxp/mcuxpressoide_11.0.1_2563/ide/plugins/com.nxp.mcuxpresso.tools.win32_11.0.1.201907311258/tools/bin/../lib/gcc/arm-none-eabi/8.2.1/thumb/v7e-m+fp/hard\libcr_eabihelpers.a(float.o)
 .text.__aeabi_fcmple
                0x00000000       0x3e c:/nxp/mcuxpressoide_11.0.1_2563/ide/plugins/com.nxp.mcuxpresso.tools.win32_11.0.1.201907311258/tools/bin/../lib/gcc/arm-none-eabi/8.2.1/thumb/v7e-m+fp/hard\libcr_eabihelpers.a(float.o)
 .text.__aeabi_fcmpge
                0x00000000       0x3e c:/nxp/mcuxpressoide_11.0.1_2563/ide/plugins/com.nxp.mcuxpresso.tools.win32_11.0.1.201907311258/tools/bin/../lib/gcc/arm-none-eabi/8.2.1/thumb/v7e-m+fp/hard\libcr_eabihelpers.a(float.o)
 .text.__aeabi_fcmpun
                0x00000000       0x1a c:/nxp/mcuxpressoide_11.0.1_2563/ide/plugins/com.nxp.mcuxpresso.tools.win32_11.0.1.201907311258/tools/bin/../lib/gcc/arm-none-eabi/8.2.1/thumb/v7e-m+fp/hard\libcr_eabihelpers.a(float.o)
 .text.__aeabi_cfcmple
                0x00000000       0x20 c:/nxp/mcuxpressoide_11.0.1_2563/ide/plugins/com.nxp.mcuxpresso.tools.win32_11.0.1.201907311258/tools/bin/../lib/gcc/arm-none-eabi/8.2.1/thumb/v7e-m+fp/hard\libcr_eabihelpers.a(float.o)
 .text.__aeabi_cfrcmple
                0x00000000        0xa c:/nxp/mcuxpressoide_11.0.1_2563/ide/plugins/com.nxp.mcuxpresso.tools.win32_11.0.1.201907311258/tools/bin/../lib/gcc/arm-none-eabi/8.2.1/thumb/v7e-m+fp/hard\libcr_eabihelpers.a(float.o)
 .text          0x00000000        0x0 c:/nxp/mcuxpressoide_11.0.1_2563/ide/plugins/com.nxp.mcuxpresso.tools.win32_11.0.1.201907311258/tools/bin/../lib/gcc/arm-none-eabi/8.2.1/thumb/v7e-m+fp/hard\libcr_eabihelpers.a(memcpy.o)
 .data          0x00000000        0x0 c:/nxp/mcuxpressoide_11.0.1_2563/ide/plugins/com.nxp.mcuxpresso.tools.win32_11.0.1.201907311258/tools/bin/../lib/gcc/arm-none-eabi/8.2.1/thumb/v7e-m+fp/hard\libcr_eabihelpers.a(memcpy.o)
 .bss           0x00000000        0x0 c:/nxp/mcuxpressoide_11.0.1_2563/ide/plugins/com.nxp.mcuxpresso.tools.win32_11.0.1.201907311258/tools/bin/../lib/gcc/arm-none-eabi/8.2.1/thumb/v7e-m+fp/hard\libcr_eabihelpers.a(memcpy.o)
 .text.__aeabi_memcpy
                0x00000000       0x34 c:/nxp/mcuxpressoide_11.0.1_2563/ide/plugins/com.nxp.mcuxpresso.tools.win32_11.0.1.201907311258/tools/bin/../lib/gcc/arm-none-eabi/8.2.1/thumb/v7e-m+fp/hard\libcr_eabihelpers.a(memcpy.o)
 .text.__aeabi_memmove
                0x00000000       0x1c c:/nxp/mcuxpressoide_11.0.1_2563/ide/plugins/com.nxp.mcuxpresso.tools.win32_11.0.1.201907311258/tools/bin/../lib/gcc/arm-none-eabi/8.2.1/thumb/v7e-m+fp/hard\libcr_eabihelpers.a(memcpy.o)
 .text.__aeabi_memclr
                0x00000000        0x8 c:/nxp/mcuxpressoide_11.0.1_2563/ide/plugins/com.nxp.mcuxpresso.tools.win32_11.0.1.201907311258/tools/bin/../lib/gcc/arm-none-eabi/8.2.1/thumb/v7e-m+fp/hard\libcr_eabihelpers.a(memcpy.o)
 .text.__aeabi_memset
                0x00000000        0xa c:/nxp/mcuxpressoide_11.0.1_2563/ide/plugins/com.nxp.mcuxpresso.tools.win32_11.0.1.201907311258/tools/bin/../lib/gcc/arm-none-eabi/8.2.1/thumb/v7e-m+fp/hard\libcr_eabihelpers.a(memcpy.o)
 .text          0x00000000        0x0 c:/nxp/mcuxpressoide_11.0.1_2563/ide/plugins/com.nxp.mcuxpresso.tools.win32_11.0.1.201907311258/tools/bin/../lib/gcc/arm-none-eabi/8.2.1/../../../../arm-none-eabi/lib/thumb/v7e-m+fp/hard\libcr_semihost_nf.a(__ciob.o)
 .data          0x00000000        0x0 c:/nxp/mcuxpressoide_11.0.1_2563/ide/plugins/com.nxp.mcuxpresso.tools.win32_11.0.1.201907311258/tools/bin/../lib/gcc/arm-none-eabi/8.2.1/../../../../arm-none-eabi/lib/thumb/v7e-m+fp/hard\libcr_semihost_nf.a(__ciob.o)
 .bss           0x00000000        0x0 c:/nxp/mcuxpressoide_11.0.1_2563/ide/plugins/com.nxp.mcuxpresso.tools.win32_11.0.1.201907311258/tools/bin/../lib/gcc/arm-none-eabi/8.2.1/../../../../arm-none-eabi/lib/thumb/v7e-m+fp/hard\libcr_semihost_nf.a(__ciob.o)
 .text          0x00000000        0x0 c:/nxp/mcuxpressoide_11.0.1_2563/ide/plugins/com.nxp.mcuxpresso.tools.win32_11.0.1.201907311258/tools/bin/../lib/gcc/arm-none-eabi/8.2.1/../../../../arm-none-eabi/lib/thumb/v7e-m+fp/hard\libcr_semihost_nf.a(__sys_appexit.o)
 .data          0x00000000        0x0 c:/nxp/mcuxpressoide_11.0.1_2563/ide/plugins/com.nxp.mcuxpresso.tools.win32_11.0.1.201907311258/tools/bin/../lib/gcc/arm-none-eabi/8.2.1/../../../../arm-none-eabi/lib/thumb/v7e-m+fp/hard\libcr_semihost_nf.a(__sys_appexit.o)
 .bss           0x00000000        0x0 c:/nxp/mcuxpressoide_11.0.1_2563/ide/plugins/com.nxp.mcuxpresso.tools.win32_11.0.1.201907311258/tools/bin/../lib/gcc/arm-none-eabi/8.2.1/../../../../arm-none-eabi/lib/thumb/v7e-m+fp/hard\libcr_semihost_nf.a(__sys_appexit.o)
 .text          0x00000000        0x0 c:/nxp/mcuxpressoide_11.0.1_2563/ide/plugins/com.nxp.mcuxpresso.tools.win32_11.0.1.201907311258/tools/bin/../lib/gcc/arm-none-eabi/8.2.1/../../../../arm-none-eabi/lib/thumb/v7e-m+fp/hard\libcr_semihost_nf.a(__sys_close.o)
 .data          0x00000000        0x0 c:/nxp/mcuxpressoide_11.0.1_2563/ide/plugins/com.nxp.mcuxpresso.tools.win32_11.0.1.201907311258/tools/bin/../lib/gcc/arm-none-eabi/8.2.1/../../../../arm-none-eabi/lib/thumb/v7e-m+fp/hard\libcr_semihost_nf.a(__sys_close.o)
 .bss           0x00000000        0x0 c:/nxp/mcuxpressoide_11.0.1_2563/ide/plugins/com.nxp.mcuxpresso.tools.win32_11.0.1.201907311258/tools/bin/../lib/gcc/arm-none-eabi/8.2.1/../../../../arm-none-eabi/lib/thumb/v7e-m+fp/hard\libcr_semihost_nf.a(__sys_close.o)
 .text          0x00000000        0x0 c:/nxp/mcuxpressoide_11.0.1_2563/ide/plugins/com.nxp.mcuxpresso.tools.win32_11.0.1.201907311258/tools/bin/../lib/gcc/arm-none-eabi/8.2.1/../../../../arm-none-eabi/lib/thumb/v7e-m+fp/hard\libcr_semihost_nf.a(__sys_flen.o)
 .data          0x00000000        0x0 c:/nxp/mcuxpressoide_11.0.1_2563/ide/plugins/com.nxp.mcuxpresso.tools.win32_11.0.1.201907311258/tools/bin/../lib/gcc/arm-none-eabi/8.2.1/../../../../arm-none-eabi/lib/thumb/v7e-m+fp/hard\libcr_semihost_nf.a(__sys_flen.o)
 .bss           0x00000000        0x0 c:/nxp/mcuxpressoide_11.0.1_2563/ide/plugins/com.nxp.mcuxpresso.tools.win32_11.0.1.201907311258/tools/bin/../lib/gcc/arm-none-eabi/8.2.1/../../../../arm-none-eabi/lib/thumb/v7e-m+fp/hard\libcr_semihost_nf.a(__sys_flen.o)
 .text          0x00000000        0x0 c:/nxp/mcuxpressoide_11.0.1_2563/ide/plugins/com.nxp.mcuxpresso.tools.win32_11.0.1.201907311258/tools/bin/../lib/gcc/arm-none-eabi/8.2.1/../../../../arm-none-eabi/lib/thumb/v7e-m+fp/hard\libcr_semihost_nf.a(__sys_istty.o)
 .data          0x00000000        0x0 c:/nxp/mcuxpressoide_11.0.1_2563/ide/plugins/com.nxp.mcuxpresso.tools.win32_11.0.1.201907311258/tools/bin/../lib/gcc/arm-none-eabi/8.2.1/../../../../arm-none-eabi/lib/thumb/v7e-m+fp/hard\libcr_semihost_nf.a(__sys_istty.o)
 .bss           0x00000000        0x0 c:/nxp/mcuxpressoide_11.0.1_2563/ide/plugins/com.nxp.mcuxpresso.tools.win32_11.0.1.201907311258/tools/bin/../lib/gcc/arm-none-eabi/8.2.1/../../../../arm-none-eabi/lib/thumb/v7e-m+fp/hard\libcr_semihost_nf.a(__sys_istty.o)
 .text          0x00000000        0x0 c:/nxp/mcuxpressoide_11.0.1_2563/ide/plugins/com.nxp.mcuxpresso.tools.win32_11.0.1.201907311258/tools/bin/../lib/gcc/arm-none-eabi/8.2.1/../../../../arm-none-eabi/lib/thumb/v7e-m+fp/hard\libcr_semihost_nf.a(__sys_remove.o)
 .data          0x00000000        0x0 c:/nxp/mcuxpressoide_11.0.1_2563/ide/plugins/com.nxp.mcuxpresso.tools.win32_11.0.1.201907311258/tools/bin/../lib/gcc/arm-none-eabi/8.2.1/../../../../arm-none-eabi/lib/thumb/v7e-m+fp/hard\libcr_semihost_nf.a(__sys_remove.o)
 .bss           0x00000000        0x0 c:/nxp/mcuxpressoide_11.0.1_2563/ide/plugins/com.nxp.mcuxpresso.tools.win32_11.0.1.201907311258/tools/bin/../lib/gcc/arm-none-eabi/8.2.1/../../../../arm-none-eabi/lib/thumb/v7e-m+fp/hard\libcr_semihost_nf.a(__sys_remove.o)
 .text          0x00000000        0x0 c:/nxp/mcuxpressoide_11.0.1_2563/ide/plugins/com.nxp.mcuxpresso.tools.win32_11.0.1.201907311258/tools/bin/../lib/gcc/arm-none-eabi/8.2.1/../../../../arm-none-eabi/lib/thumb/v7e-m+fp/hard\libcr_semihost_nf.a(__sys_rename.o)
 .data          0x00000000        0x0 c:/nxp/mcuxpressoide_11.0.1_2563/ide/plugins/com.nxp.mcuxpresso.tools.win32_11.0.1.201907311258/tools/bin/../lib/gcc/arm-none-eabi/8.2.1/../../../../arm-none-eabi/lib/thumb/v7e-m+fp/hard\libcr_semihost_nf.a(__sys_rename.o)
 .bss           0x00000000        0x0 c:/nxp/mcuxpressoide_11.0.1_2563/ide/plugins/com.nxp.mcuxpresso.tools.win32_11.0.1.201907311258/tools/bin/../lib/gcc/arm-none-eabi/8.2.1/../../../../arm-none-eabi/lib/thumb/v7e-m+fp/hard\libcr_semihost_nf.a(__sys_rename.o)
 .text.__sys_rename
                0x00000000        0xc c:/nxp/mcuxpressoide_11.0.1_2563/ide/plugins/com.nxp.mcuxpresso.tools.win32_11.0.1.201907311258/tools/bin/../lib/gcc/arm-none-eabi/8.2.1/../../../../arm-none-eabi/lib/thumb/v7e-m+fp/hard\libcr_semihost_nf.a(__sys_rename.o)
 .ARM.attributes
                0x00000000       0x20 c:/nxp/mcuxpressoide_11.0.1_2563/ide/plugins/com.nxp.mcuxpresso.tools.win32_11.0.1.201907311258/tools/bin/../lib/gcc/arm-none-eabi/8.2.1/../../../../arm-none-eabi/lib/thumb/v7e-m+fp/hard\libcr_semihost_nf.a(__sys_rename.o)
 .text          0x00000000        0x0 c:/nxp/mcuxpressoide_11.0.1_2563/ide/plugins/com.nxp.mcuxpresso.tools.win32_11.0.1.201907311258/tools/bin/../lib/gcc/arm-none-eabi/8.2.1/../../../../arm-none-eabi/lib/thumb/v7e-m+fp/hard\libcr_semihost_nf.a(__sys_seek.o)
 .data          0x00000000        0x0 c:/nxp/mcuxpressoide_11.0.1_2563/ide/plugins/com.nxp.mcuxpresso.tools.win32_11.0.1.201907311258/tools/bin/../lib/gcc/arm-none-eabi/8.2.1/../../../../arm-none-eabi/lib/thumb/v7e-m+fp/hard\libcr_semihost_nf.a(__sys_seek.o)
 .bss           0x00000000        0x0 c:/nxp/mcuxpressoide_11.0.1_2563/ide/plugins/com.nxp.mcuxpresso.tools.win32_11.0.1.201907311258/tools/bin/../lib/gcc/arm-none-eabi/8.2.1/../../../../arm-none-eabi/lib/thumb/v7e-m+fp/hard\libcr_semihost_nf.a(__sys_seek.o)
 .text          0x00000000        0x0 c:/nxp/mcuxpressoide_11.0.1_2563/ide/plugins/com.nxp.mcuxpresso.tools.win32_11.0.1.201907311258/tools/bin/../lib/gcc/arm-none-eabi/8.2.1/../../../../arm-none-eabi/lib/thumb/v7e-m+fp/hard\libcr_semihost_nf.a(__sys_tmpnam.o)
 .data          0x00000000        0x0 c:/nxp/mcuxpressoide_11.0.1_2563/ide/plugins/com.nxp.mcuxpresso.tools.win32_11.0.1.201907311258/tools/bin/../lib/gcc/arm-none-eabi/8.2.1/../../../../arm-none-eabi/lib/thumb/v7e-m+fp/hard\libcr_semihost_nf.a(__sys_tmpnam.o)
 .bss           0x00000000        0x0 c:/nxp/mcuxpressoide_11.0.1_2563/ide/plugins/com.nxp.mcuxpresso.tools.win32_11.0.1.201907311258/tools/bin/../lib/gcc/arm-none-eabi/8.2.1/../../../../arm-none-eabi/lib/thumb/v7e-m+fp/hard\libcr_semihost_nf.a(__sys_tmpnam.o)
 .text          0x00000000        0x0 c:/nxp/mcuxpressoide_11.0.1_2563/ide/plugins/com.nxp.mcuxpresso.tools.win32_11.0.1.201907311258/tools/bin/../lib/gcc/arm-none-eabi/8.2.1/../../../../arm-none-eabi/lib/thumb/v7e-m+fp/hard\libcr_semihost_nf.a(__sys_write.o)
 .data          0x00000000        0x0 c:/nxp/mcuxpressoide_11.0.1_2563/ide/plugins/com.nxp.mcuxpresso.tools.win32_11.0.1.201907311258/tools/bin/../lib/gcc/arm-none-eabi/8.2.1/../../../../arm-none-eabi/lib/thumb/v7e-m+fp/hard\libcr_semihost_nf.a(__sys_write.o)
 .bss           0x00000000        0x0 c:/nxp/mcuxpressoide_11.0.1_2563/ide/plugins/com.nxp.mcuxpresso.tools.win32_11.0.1.201907311258/tools/bin/../lib/gcc/arm-none-eabi/8.2.1/../../../../arm-none-eabi/lib/thumb/v7e-m+fp/hard\libcr_semihost_nf.a(__sys_write.o)

Memory Configuration

Name             Origin             Length             Attributes
BOARD_FLASH      0x60000000         0x01000000         xr
SRAM_DTC         0x20000000         0x00008000         xrw
SRAM_ITC         0x00000000         0x00008000         xrw
SRAM_OC          0x20200000         0x00008000         xrw
NCACHE_REGION    0x20208000         0x00008000         xrw
*default*        0x00000000         0xffffffff

Linker script and memory map

LOAD ./xip/evkmimxrt1010_flexspi_nor_config.o
LOAD ./xip/fsl_flexspi_nor_boot.o
LOAD ./utilities/fsl_debug_console.o
LOAD ./utilities/fsl_str.o
LOAD ./usb/phy/usb_phy.o
LOAD ./usb/host/class/usb_host_cdc.o
LOAD ./usb/host/usb_host_devices.o
LOAD ./usb/host/usb_host_ehci.o
LOAD ./usb/host/usb_host_framework.o
LOAD ./usb/host/usb_host_hci.o
LOAD ./startup/startup_mimxrt1011.o
LOAD ./source/semihost_hardfault.o
LOAD ./source/speakEZ.o
LOAD ./source/usbmidi.o
LOAD ./osa/usb_osa_bm.o
LOAD ./drivers/fsl_clock.o
LOAD ./drivers/fsl_common.o
LOAD ./drivers/fsl_dmamux.o
LOAD ./drivers/fsl_edma.o
LOAD ./drivers/fsl_gpio.o
LOAD ./drivers/fsl_lpi2c.o
LOAD ./drivers/fsl_lpi2c_edma.o
LOAD ./drivers/fsl_lpuart.o
LOAD ./drivers/fsl_lpuart_edma.o
LOAD ./drivers/fsl_pit.o
LOAD ./drivers/fsl_sai.o
LOAD ./device/system_MIMXRT1011.o
LOAD ./component/uart/lpuart_adapter.o
LOAD ./component/serial_manager/serial_manager.o
LOAD ./component/serial_manager/serial_port_uart.o
LOAD ./component/i2c/lpi2c_adapter.o
LOAD ./codec/fsl_codec_adapter.o
LOAD ./codec/fsl_codec_common.o
LOAD ./codec/fsl_codec_i2c.o
LOAD ./codec/fsl_wm8960.o
LOAD ./board/board.o
LOAD ./board/clock_config.o
LOAD ./board/peripherals.o
LOAD ./board/pin_mux.o
LOAD F:\Dropbox\Hardware Development\MCUXpresso\11.0.1\workspace\speakEZ\libs\libarm_cortexM7lfsp_math.a
START GROUP
LOAD c:/nxp/mcuxpressoide_11.0.1_2563/ide/plugins/com.nxp.mcuxpresso.tools.win32_11.0.1.201907311258/tools/bin/../lib/gcc/arm-none-eabi/8.2.1/../../../../arm-none-eabi/lib/thumb/v7e-m+fp/hard\libcr_semihost_nf.a
LOAD c:/nxp/mcuxpressoide_11.0.1_2563/ide/plugins/com.nxp.mcuxpresso.tools.win32_11.0.1.201907311258/tools/bin/../lib/gcc/arm-none-eabi/8.2.1/../../../../arm-none-eabi/lib/thumb/v7e-m+fp/hard\libcr_c.a
LOAD c:/nxp/mcuxpressoide_11.0.1_2563/ide/plugins/com.nxp.mcuxpresso.tools.win32_11.0.1.201907311258/tools/bin/../lib/gcc/arm-none-eabi/8.2.1/thumb/v7e-m+fp/hard\libcr_eabihelpers.a
LOAD c:/nxp/mcuxpressoide_11.0.1_2563/ide/plugins/com.nxp.mcuxpresso.tools.win32_11.0.1.201907311258/tools/bin/../lib/gcc/arm-none-eabi/8.2.1/thumb/v7e-m+fp/hard\libgcc.a
END GROUP
                0x60000000                __base_BOARD_FLASH = 0x60000000
                0x60000000                __base_Flash = 0x60000000
                0x61000000                __top_BOARD_FLASH = 0x61000000
                0x61000000                __top_Flash = 0x61000000
                0x20000000                __base_SRAM_DTC = 0x20000000
                0x20000000                __base_RAM = 0x20000000
                0x20008000                __top_SRAM_DTC = 0x20008000
                0x20008000                __top_RAM = 0x20008000
                0x00000000                __base_SRAM_ITC = 0x0
                0x00000000                __base_RAM2 = 0x0
                0x00008000                __top_SRAM_ITC = 0x8000
                0x00008000                __top_RAM2 = 0x8000
                0x20200000                __base_SRAM_OC = 0x20200000
                0x20200000                __base_RAM3 = 0x20200000
                0x20208000                __top_SRAM_OC = 0x20208000
                0x20208000                __top_RAM3 = 0x20208000
                0x20208000                __base_NCACHE_REGION = 0x20208000
                0x20208000                __base_RAM4 = 0x20208000
                0x20210000                __top_NCACHE_REGION = 0x20210000
                0x20210000                __top_RAM4 = 0x20210000

.boot_hdr       0x60000000     0x2000
 FILL mask 0xff
                0x00000400                . = 0x400
 *fill*         0x60000000      0x400 ff
                0x60000400                __boot_hdr_start__ = ABSOLUTE (.)
 *(SORT_BY_ALIGNMENT(.boot_hdr.conf))
 .boot_hdr.conf
                0x60000400      0x200 ./xip/evkmimxrt1010_flexspi_nor_config.o
                0x60000400                qspiflash_config
                0x00001000                . = 0x1000
 *fill*         0x60000600      0xa00 ff
 *(SORT_BY_ALIGNMENT(.boot_hdr.ivt))
 .boot_hdr.ivt  0x60001000       0x20 ./xip/fsl_flexspi_nor_boot.o
                0x60001000                image_vector_table
                0x00001020                . = 0x1020
 *(SORT_BY_ALIGNMENT(.boot_hdr.boot_data))
 .boot_hdr.boot_data
                0x60001020       0x10 ./xip/fsl_flexspi_nor_boot.o
                0x60001020                boot_data
                0x00001030                . = 0x1030
 *(SORT_BY_ALIGNMENT(.boot_hdr.dcd_data))
                0x00001030                __boot_hdr_end__ = ABSOLUTE (.)
                0x00002000                . = 0x2000
 *fill*         0x60001030      0xfd0 ff

.text           0x60002000     0xbb70
 FILL mask 0xff
                0x60002000                __vectors_start__ = ABSOLUTE (.)
 *(SORT_BY_ALIGNMENT(.isr_vector))
 .isr_vector    0x60002000      0x180 ./startup/startup_mimxrt1011.o
                0x60002000                g_pfnVectors
                0x60002000                __Vectors
                0x60002180                . = ALIGN (0x4)
                0x60002180                __section_table_start = .
                0x60002180                __data_section_table = .
                0x60002180        0x4 LONG 0x6000db70 LOADADDR (.data)
                0x60002184        0x4 LONG 0x20000000 ADDR (.data)
                0x60002188        0x4 LONG 0xd8 SIZEOF (.data)
                0x6000218c        0x4 LONG 0x6000db70 LOADADDR (.data_RAM2)
                0x60002190        0x4 LONG 0x0 ADDR (.data_RAM2)
                0x60002194        0x4 LONG 0x0 SIZEOF (.data_RAM2)
                0x60002198        0x4 LONG 0x6000db70 LOADADDR (.data_RAM3)
                0x6000219c        0x4 LONG 0x20200000 ADDR (.data_RAM3)
                0x600021a0        0x4 LONG 0x0 SIZEOF (.data_RAM3)
                0x600021a4        0x4 LONG 0x6000db70 LOADADDR (.data_RAM4)
                0x600021a8        0x4 LONG 0x20208000 ADDR (.data_RAM4)
                0x600021ac        0x4 LONG 0x0 SIZEOF (.data_RAM4)
                0x600021b0                __data_section_table_end = .
                0x600021b0                __bss_section_table = .
                0x600021b0        0x4 LONG 0x20001000 ADDR (.bss)
                0x600021b4        0x4 LONG 0x3fd0 SIZEOF (.bss)
                0x600021b8        0x4 LONG 0x0 ADDR (.bss_RAM2)
                0x600021bc        0x4 LONG 0x0 SIZEOF (.bss_RAM2)
                0x600021c0        0x4 LONG 0x20200000 ADDR (.bss_RAM3)
                0x600021c4        0x4 LONG 0x0 SIZEOF (.bss_RAM3)
                0x600021c8        0x4 LONG 0x20208000 ADDR (.bss_RAM4)
                0x600021cc        0x4 LONG 0x0 SIZEOF (.bss_RAM4)
                0x600021d0                __bss_section_table_end = .
                0x600021d0                __section_table_end = .
 *(SORT_BY_ALIGNMENT(.after_vectors*))
 .after_vectors
                0x600021d0       0x18 ./startup/startup_mimxrt1011.o
                0x600021d0                NMI_Handler
                0x600021d8                SVC_Handler
                0x600021dc                PendSV_Handler
                0x600021e0                SysTick_Handler
                0x600021e4                LPSPI2_DriverIRQHandler
                0x600021e4                SPDIF_DriverIRQHandler
                0x600021e4                PIT_DriverIRQHandler
                0x600021e4                CCM_2_DriverIRQHandler
                0x600021e4                FLEXRAM_DriverIRQHandler
                0x600021e4                ADC_ETC_IRQ3_DriverIRQHandler
                0x600021e4                USB_PHY_DriverIRQHandler
                0x600021e4                GPR_IRQ_DriverIRQHandler
                0x600021e4                TRNG_DriverIRQHandler
                0x600021e4                IntDefaultHandler
                0x600021e4                SRC_DriverIRQHandler
                0x600021e4                EWM_DriverIRQHandler
                0x600021e4                WDOG1_DriverIRQHandler
                0x600021e4                FLEXIO1_DriverIRQHandler
                0x600021e4                ADC_ETC_IRQ2_DriverIRQHandler
                0x600021e4                GPIO1_Combined_16_31_DriverIRQHandler
                0x600021e4                DCDC_DriverIRQHandler
                0x600021e4                ADC_ETC_ERROR_IRQ_DriverIRQHandler
                0x600021e4                GPIO5_Combined_0_15_DriverIRQHandler
                0x600021e4                RTWDOG_DriverIRQHandler
                0x600021e4                FLEXSPI_DriverIRQHandler
                0x600021e4                GPT2_DriverIRQHandler
                0x600021e4                PWM1_1_DriverIRQHandler
                0x600021e4                Reserved71_DriverIRQHandler
                0x600021e4                ADC1_DriverIRQHandler
                0x600021e4                PWM1_0_DriverIRQHandler
                0x600021e4                DCP_DriverIRQHandler
                0x600021e4                CTI0_ERROR_DriverIRQHandler
                0x600021e4                GPT1_DriverIRQHandler
                0x600021e4                CSU_DriverIRQHandler
                0x600021e4                CTI1_ERROR_DriverIRQHandler
                0x600021e4                GPIO1_Combined_0_15_DriverIRQHandler
                0x600021e4                CORE_DriverIRQHandler
                0x600021e4                KPP_DriverIRQHandler
                0x600021e4                SNVS_HP_WRAPPER_TZ_DriverIRQHandler
                0x600021e4                PWM1_FAULT_DriverIRQHandler
                0x600021e4                SNVS_HP_WRAPPER_DriverIRQHandler
                0x600021e4                ADC_ETC_IRQ1_DriverIRQHandler
                0x600021e4                LPSPI1_DriverIRQHandler
                0x600021e4                DCP_VMI_DriverIRQHandler
                0x600021e4                GPC_DriverIRQHandler
                0x600021e4                GPIO2_Combined_0_15_DriverIRQHandler
                0x600021e4                PWM1_2_DriverIRQHandler
                0x600021e4                USB_OTG1_DriverIRQHandler
                0x600021e4                TEMP_LOW_HIGH_DriverIRQHandler
                0x600021e4                WDOG2_DriverIRQHandler
                0x600021e4                Reserved68_DriverIRQHandler
                0x600021e4                PMU_DriverIRQHandler
                0x600021e4                CCM_1_DriverIRQHandler
                0x600021e4                TEMP_PANIC_DriverIRQHandler
                0x600021e4                PWM1_3_DriverIRQHandler
                0x600021e4                Reserved70_DriverIRQHandler
                0x600021e4                DMA_ERROR_DriverIRQHandler
                0x600021e4                ADC_ETC_IRQ0_DriverIRQHandler
                0x600021e4                XBAR1_IRQ_0_1_2_3_DriverIRQHandler
                0x600021e4                SNVS_LP_WRAPPER_DriverIRQHandler
 .after_vectors.reset
                0x600021e8      0x168 ./startup/startup_mimxrt1011.o
                0x600021e8                ResetISR
 *(SORT_BY_ALIGNMENT(.text*))
 .text.setWavetableTri
                0x60002350       0x8c ./source/speakEZ.o
                0x60002350                setWavetableTri
 *fill*         0x600023dc        0x4 ff
 .text.setWavetableNovel
                0x600023e0       0x90 ./source/speakEZ.o
                0x600023e0                setWavetableNovel
 .text.calculateBiquadCoeffs
                0x60002470      0x234 ./source/speakEZ.o
                0x60002470                calculateBiquadCoeffs
 *fill*         0x600026a4        0x4 ff
 .text.startup.main
                0x600026a8      0xae8 ./source/speakEZ.o
                0x600026a8                main
 .text.powf     0x60003190      0x2d4 c:/nxp/mcuxpressoide_11.0.1_2563/ide/plugins/com.nxp.mcuxpresso.tools.win32_11.0.1.201907311258/tools/bin/../lib/gcc/arm-none-eabi/8.2.1/../../../../arm-none-eabi/lib/thumb/v7e-m+fp/hard\libcr_c.a(powf.o)
                0x60003190                powf
 .text.DbgConsole_Init
                0x60003464       0x70 ./utilities/fsl_debug_console.o
                0x60003464                DbgConsole_Init
 .text.USB_EhciPhyInit
                0x600034d4       0xcc ./usb/phy/usb_phy.o
                0x600034d4                USB_EhciPhyInit
 .text.USB_EhcihostPhyDisconnectDetectCmd
                0x600035a0       0x58 ./usb/phy/usb_phy.o
                0x600035a0                USB_EhcihostPhyDisconnectDetectCmd
 .text.USB_HostCdcDataInPipeCallback
                0x600035f8       0x20 ./usb/host/class/usb_host_cdc.o
                0x600035f8                USB_HostCdcDataInPipeCallback
 .text.USB_HostCdcOpenControlInterface
                0x60003618       0xc4 ./usb/host/class/usb_host_cdc.o
 .text.USB_HostCdcSetContorlInterfaceCallback
                0x600036dc       0x30 ./usb/host/class/usb_host_cdc.o
 .text.USB_HostCdcOpenDataInterface
                0x6000370c      0x130 ./usb/host/class/usb_host_cdc.o
 .text.USB_HostCdcSetDataInterfaceCallback
                0x6000383c       0x30 ./usb/host/class/usb_host_cdc.o
 .text.USB_HostCdcInit
                0x6000386c       0x44 ./usb/host/class/usb_host_cdc.o
                0x6000386c                USB_HostCdcInit
 .text.USB_HostCdcSetControlInterface
                0x600038b0       0xa8 ./usb/host/class/usb_host_cdc.o
                0x600038b0                USB_HostCdcSetControlInterface
 .text.USB_HostCdcSetDataInterface
                0x60003958       0xb4 ./usb/host/class/usb_host_cdc.o
                0x60003958                USB_HostCdcSetDataInterface
 .text.USB_HostCdcDeinit
                0x60003a0c       0x8c ./usb/host/class/usb_host_cdc.o
                0x60003a0c                USB_HostCdcDeinit
 .text.USB_HostCdcDataRecv
                0x60003a98       0x54 ./usb/host/class/usb_host_cdc.o
                0x60003a98                USB_HostCdcDataRecv
 .text.USB_HostCdcGetPacketsize
                0x60003aec       0x18 ./usb/host/class/usb_host_cdc.o
                0x60003aec                USB_HostCdcGetPacketsize
 .text.USB_HostProcessCallback
                0x60003b04      0x3a0 ./usb/host/usb_host_devices.o
 .text.USB_HostProcessState
                0x60003ea4      0x130 ./usb/host/usb_host_devices.o
 .text.USB_HostEnumerationTransferCallback
                0x60003fd4       0xcc ./usb/host/usb_host_devices.o
 .text.USB_HostReleaseDeviceResource
                0x600040a0       0x90 ./usb/host/usb_host_devices.o
 .text.USB_HostAttachDevice
                0x60004130      0x238 ./usb/host/usb_host_devices.o
                0x60004130                USB_HostAttachDevice
 .text.USB_HostDetachDeviceInternal
                0x60004368       0x84 ./usb/host/usb_host_devices.o
                0x60004368                USB_HostDetachDeviceInternal
 .text.USB_HostDetachDevice
                0x600043ec       0x2c ./usb/host/usb_host_devices.o
                0x600043ec                USB_HostDetachDevice
 .text.USB_HostOpenDeviceInterface
                0x60004418       0x98 ./usb/host/usb_host_devices.o
                0x60004418                USB_HostOpenDeviceInterface
 .text.USB_HostCloseDeviceInterface
                0x600044b0      0x134 ./usb/host/usb_host_devices.o
                0x600044b0                USB_HostCloseDeviceInterface
 .text.USB_HostEhciQhInit.isra.12
                0x600045e4      0x118 ./usb/host/usb_host_ehci.o
 .text.USB_HostBandwidthHsHostComputeCurrentHsAll.isra.14.part.15
                0x600046fc      0x1c4 ./usb/host/usb_host_ehci.o
 .text.USB_HostEhciQhQtdListDeinit.isra.10
                0x600048c0      0x174 ./usb/host/usb_host_ehci.o
 .text.USB_HostEhciTransactionDone
                0x60004a34      0x284 ./usb/host/usb_host_ehci.o
                0x60004a34                USB_HostEhciTransactionDone
 .text.USB_HostEhciCreate
                0x60004cb8      0x280 ./usb/host/usb_host_ehci.o
                0x60004cb8                USB_HostEhciCreate
 .text.USB_HostEhciDestory
                0x60004f38       0x3c ./usb/host/usb_host_ehci.o
                0x60004f38                USB_HostEhciDestory
 .text.USB_HostEhciOpenPipe
                0x60004f74      0xb30 ./usb/host/usb_host_ehci.o
                0x60004f74                USB_HostEhciOpenPipe
 .text.USB_HostEhciClosePipe
                0x60005aa4      0x218 ./usb/host/usb_host_ehci.o
                0x60005aa4                USB_HostEhciClosePipe
 .text.USB_HostEhciWritePipe
                0x60005cbc      0x310 ./usb/host/usb_host_ehci.o
                0x60005cbc                USB_HostEhciWritePipe
 .text.USB_HostEhciReadpipe
                0x60005fcc      0x310 ./usb/host/usb_host_ehci.o
                0x60005fcc                USB_HostEhciReadpipe
 .text.USB_HostEhciIoctl
                0x600062dc      0x3b0 ./usb/host/usb_host_ehci.o
                0x600062dc                USB_HostEhciIoctl
 .text.USB_HostEhciTaskFunction
                0x6000668c      0x4b0 ./usb/host/usb_host_ehci.o
                0x6000668c                USB_HostEhciTaskFunction
 .text.USB_HostEhciIsrFunction
                0x60006b3c       0x6c ./usb/host/usb_host_ehci.o
                0x60006b3c                USB_HostEhciIsrFunction
 .text.USB_HostCh9RequestCommon
                0x60006ba8       0x2c ./usb/host/usb_host_framework.o
                0x60006ba8                USB_HostCh9RequestCommon
 .text.USB_HostStandardSetAddress
                0x60006bd4       0x30 ./usb/host/usb_host_framework.o
                0x60006bd4                USB_HostStandardSetAddress
 .text.USB_HostStandardSetGetDescriptor
                0x60006c04       0x3c ./usb/host/usb_host_framework.o
                0x60006c04                USB_HostStandardSetGetDescriptor
 .text.USB_HostInit
                0x60006c40      0x20c ./usb/host/usb_host_hci.o
                0x60006c40                USB_HostInit
 .text.USB_HostOpenPipe
                0x60006e4c       0x14 ./usb/host/usb_host_hci.o
                0x60006e4c                USB_HostOpenPipe
 .text.USB_HostClosePipe
                0x60006e60       0x14 ./usb/host/usb_host_hci.o
                0x60006e60                USB_HostClosePipe
 .text.USB_HostSendSetup
                0x60006e74       0x50 ./usb/host/usb_host_hci.o
                0x60006e74                USB_HostSendSetup
 .text.USB_HostRecv
                0x60006ec4       0x48 ./usb/host/usb_host_hci.o
                0x60006ec4                USB_HostRecv
 .text.USB_HostCancelTransfer
                0x60006f0c       0x24 ./usb/host/usb_host_hci.o
                0x60006f0c                USB_HostCancelTransfer
 .text.USB_HostMallocTransfer
                0x60006f30       0x40 ./usb/host/usb_host_hci.o
                0x60006f30                USB_HostMallocTransfer
 .text.USB_HostFreeTransfer
                0x60006f70       0x2c ./usb/host/usb_host_hci.o
                0x60006f70                USB_HostFreeTransfer
 .text.USB_HostHelperGetPeripheralInformation
                0x60006f9c       0x94 ./usb/host/usb_host_hci.o
                0x60006f9c                USB_HostHelperGetPeripheralInformation
 .text.DMA0_IRQHandler
                0x60007030        0x8 ./startup/startup_mimxrt1011.o
                0x60007030                DMA0_IRQHandler
 .text.DMA1_IRQHandler
                0x60007038        0x8 ./startup/startup_mimxrt1011.o
                0x60007038                DMA1_IRQHandler
 .text.DMA2_IRQHandler
                0x60007040        0x8 ./startup/startup_mimxrt1011.o
                0x60007040                DMA2_IRQHandler
 .text.DMA3_IRQHandler
                0x60007048        0x8 ./startup/startup_mimxrt1011.o
                0x60007048                DMA3_IRQHandler
 .text.DMA4_IRQHandler
                0x60007050        0x8 ./startup/startup_mimxrt1011.o
                0x60007050                DMA4_IRQHandler
 .text.DMA5_IRQHandler
                0x60007058        0x8 ./startup/startup_mimxrt1011.o
                0x60007058                DMA5_IRQHandler
 .text.DMA6_IRQHandler
                0x60007060        0x8 ./startup/startup_mimxrt1011.o
                0x60007060                DMA6_IRQHandler
 .text.DMA7_IRQHandler
                0x60007068        0x8 ./startup/startup_mimxrt1011.o
                0x60007068                DMA7_IRQHandler
 .text.DMA8_IRQHandler
                0x60007070        0x8 ./startup/startup_mimxrt1011.o
                0x60007070                DMA8_IRQHandler
 .text.DMA9_IRQHandler
                0x60007078        0x8 ./startup/startup_mimxrt1011.o
                0x60007078                DMA9_IRQHandler
 .text.DMA10_IRQHandler
                0x60007080        0x8 ./startup/startup_mimxrt1011.o
                0x60007080                DMA10_IRQHandler
 .text.DMA11_IRQHandler
                0x60007088        0x8 ./startup/startup_mimxrt1011.o
                0x60007088                DMA11_IRQHandler
 .text.DMA12_IRQHandler
                0x60007090        0x8 ./startup/startup_mimxrt1011.o
                0x60007090                DMA12_IRQHandler
 .text.DMA13_IRQHandler
                0x60007098        0x8 ./startup/startup_mimxrt1011.o
                0x60007098                DMA13_IRQHandler
 .text.DMA14_IRQHandler
                0x600070a0        0x8 ./startup/startup_mimxrt1011.o
                0x600070a0                DMA14_IRQHandler
 .text.DMA15_IRQHandler
                0x600070a8        0x8 ./startup/startup_mimxrt1011.o
                0x600070a8                DMA15_IRQHandler
 .text.DMA_ERROR_IRQHandler
                0x600070b0        0x8 ./startup/startup_mimxrt1011.o
                0x600070b0                DMA_ERROR_IRQHandler
 .text.CTI0_ERROR_IRQHandler
                0x600070b8        0x8 ./startup/startup_mimxrt1011.o
                0x600070b8                CTI0_ERROR_IRQHandler
 .text.CTI1_ERROR_IRQHandler
                0x600070c0        0x8 ./startup/startup_mimxrt1011.o
                0x600070c0                CTI1_ERROR_IRQHandler
 .text.CORE_IRQHandler
                0x600070c8        0x8 ./startup/startup_mimxrt1011.o
                0x600070c8                CORE_IRQHandler
 .text.LPUART1_IRQHandler
                0x600070d0        0x8 ./startup/startup_mimxrt1011.o
                0x600070d0                LPUART1_IRQHandler
 .text.LPUART2_IRQHandler
                0x600070d8        0x8 ./startup/startup_mimxrt1011.o
                0x600070d8                LPUART2_IRQHandler
 .text.LPUART3_IRQHandler
                0x600070e0        0x8 ./startup/startup_mimxrt1011.o
                0x600070e0                LPUART3_IRQHandler
 .text.LPUART4_IRQHandler
                0x600070e8        0x8 ./startup/startup_mimxrt1011.o
                0x600070e8                LPUART4_IRQHandler
 .text.FLEXSPI_IRQHandler
                0x600070f0        0x8 ./startup/startup_mimxrt1011.o
                0x600070f0                FLEXSPI_IRQHandler
 .text.FLEXRAM_IRQHandler
                0x600070f8        0x8 ./startup/startup_mimxrt1011.o
                0x600070f8                FLEXRAM_IRQHandler
 .text.LPI2C1_IRQHandler
                0x60007100        0x8 ./startup/startup_mimxrt1011.o
                0x60007100                LPI2C1_IRQHandler
 .text.LPI2C2_IRQHandler
                0x60007108        0x8 ./startup/startup_mimxrt1011.o
                0x60007108                LPI2C2_IRQHandler
 .text.GPT1_IRQHandler
                0x60007110        0x8 ./startup/startup_mimxrt1011.o
                0x60007110                GPT1_IRQHandler
 .text.GPT2_IRQHandler
                0x60007118        0x8 ./startup/startup_mimxrt1011.o
                0x60007118                GPT2_IRQHandler
 .text.LPSPI1_IRQHandler
                0x60007120        0x8 ./startup/startup_mimxrt1011.o
                0x60007120                LPSPI1_IRQHandler
 .text.LPSPI2_IRQHandler
                0x60007128        0x8 ./startup/startup_mimxrt1011.o
                0x60007128                LPSPI2_IRQHandler
 .text.PWM1_0_IRQHandler
                0x60007130        0x8 ./startup/startup_mimxrt1011.o
                0x60007130                PWM1_0_IRQHandler
 .text.PWM1_1_IRQHandler
                0x60007138        0x8 ./startup/startup_mimxrt1011.o
                0x60007138                PWM1_1_IRQHandler
 .text.PWM1_2_IRQHandler
                0x60007140        0x8 ./startup/startup_mimxrt1011.o
                0x60007140                PWM1_2_IRQHandler
 .text.PWM1_3_IRQHandler
                0x60007148        0x8 ./startup/startup_mimxrt1011.o
                0x60007148                PWM1_3_IRQHandler
 .text.PWM1_FAULT_IRQHandler
                0x60007150        0x8 ./startup/startup_mimxrt1011.o
                0x60007150                PWM1_FAULT_IRQHandler
 .text.KPP_IRQHandler
                0x60007158        0x8 ./startup/startup_mimxrt1011.o
                0x60007158                KPP_IRQHandler
 .text.SRC_IRQHandler
                0x60007160        0x8 ./startup/startup_mimxrt1011.o
                0x60007160                SRC_IRQHandler
 .text.GPR_IRQ_IRQHandler
                0x60007168        0x8 ./startup/startup_mimxrt1011.o
                0x60007168                GPR_IRQ_IRQHandler
 .text.CCM_1_IRQHandler
                0x60007170        0x8 ./startup/startup_mimxrt1011.o
                0x60007170                CCM_1_IRQHandler
 .text.CCM_2_IRQHandler
                0x60007178        0x8 ./startup/startup_mimxrt1011.o
                0x60007178                CCM_2_IRQHandler
 .text.EWM_IRQHandler
                0x60007180        0x8 ./startup/startup_mimxrt1011.o
                0x60007180                EWM_IRQHandler
 .text.WDOG2_IRQHandler
                0x60007188        0x8 ./startup/startup_mimxrt1011.o
                0x60007188                WDOG2_IRQHandler
 .text.SNVS_HP_WRAPPER_IRQHandler
                0x60007190        0x8 ./startup/startup_mimxrt1011.o
                0x60007190                SNVS_HP_WRAPPER_IRQHandler
 .text.SNVS_HP_WRAPPER_TZ_IRQHandler
                0x60007198        0x8 ./startup/startup_mimxrt1011.o
                0x60007198                SNVS_HP_WRAPPER_TZ_IRQHandler
 .text.SNVS_LP_WRAPPER_IRQHandler
                0x600071a0        0x8 ./startup/startup_mimxrt1011.o
                0x600071a0                SNVS_LP_WRAPPER_IRQHandler
 .text.CSU_IRQHandler
                0x600071a8        0x8 ./startup/startup_mimxrt1011.o
                0x600071a8                CSU_IRQHandler
 .text.DCP_IRQHandler
                0x600071b0        0x8 ./startup/startup_mimxrt1011.o
                0x600071b0                DCP_IRQHandler
 .text.DCP_VMI_IRQHandler
                0x600071b8        0x8 ./startup/startup_mimxrt1011.o
                0x600071b8                DCP_VMI_IRQHandler
 .text.Reserved68_IRQHandler
                0x600071c0        0x8 ./startup/startup_mimxrt1011.o
                0x600071c0                Reserved68_IRQHandler
 .text.TRNG_IRQHandler
                0x600071c8        0x8 ./startup/startup_mimxrt1011.o
                0x600071c8                TRNG_IRQHandler
 .text.Reserved70_IRQHandler
                0x600071d0        0x8 ./startup/startup_mimxrt1011.o
                0x600071d0                Reserved70_IRQHandler
 .text.Reserved71_IRQHandler
                0x600071d8        0x8 ./startup/startup_mimxrt1011.o
                0x600071d8                Reserved71_IRQHandler
 .text.RTWDOG_IRQHandler
                0x600071e0        0x8 ./startup/startup_mimxrt1011.o
                0x600071e0                RTWDOG_IRQHandler
 .text.SAI3_RX_IRQHandler
                0x600071e8        0x8 ./startup/startup_mimxrt1011.o
                0x600071e8                SAI3_RX_IRQHandler
 .text.SAI3_TX_IRQHandler
                0x600071f0        0x8 ./startup/startup_mimxrt1011.o
                0x600071f0                SAI3_TX_IRQHandler
 .text.SPDIF_IRQHandler
                0x600071f8        0x8 ./startup/startup_mimxrt1011.o
                0x600071f8                SPDIF_IRQHandler
 .text.PMU_IRQHandler
                0x60007200        0x8 ./startup/startup_mimxrt1011.o
                0x60007200                PMU_IRQHandler
 .text.XBAR1_IRQ_0_1_2_3_IRQHandler
                0x60007208        0x8 ./startup/startup_mimxrt1011.o
                0x60007208                XBAR1_IRQ_0_1_2_3_IRQHandler
 .text.TEMP_LOW_HIGH_IRQHandler
                0x60007210        0x8 ./startup/startup_mimxrt1011.o
                0x60007210                TEMP_LOW_HIGH_IRQHandler
 .text.TEMP_PANIC_IRQHandler
                0x60007218        0x8 ./startup/startup_mimxrt1011.o
                0x60007218                TEMP_PANIC_IRQHandler
 .text.USB_PHY_IRQHandler
                0x60007220        0x8 ./startup/startup_mimxrt1011.o
                0x60007220                USB_PHY_IRQHandler
 .text.GPC_IRQHandler
                0x60007228        0x8 ./startup/startup_mimxrt1011.o
                0x60007228                GPC_IRQHandler
 .text.ADC1_IRQHandler
                0x60007230        0x8 ./startup/startup_mimxrt1011.o
                0x60007230                ADC1_IRQHandler
 .text.FLEXIO1_IRQHandler
                0x60007238        0x8 ./startup/startup_mimxrt1011.o
                0x60007238                FLEXIO1_IRQHandler
 .text.DCDC_IRQHandler
                0x60007240        0x8 ./startup/startup_mimxrt1011.o
                0x60007240                DCDC_IRQHandler
 .text.GPIO1_Combined_0_15_IRQHandler
                0x60007248        0x8 ./startup/startup_mimxrt1011.o
                0x60007248                GPIO1_Combined_0_15_IRQHandler
 .text.GPIO1_Combined_16_31_IRQHandler
                0x60007250        0x8 ./startup/startup_mimxrt1011.o
                0x60007250                GPIO1_Combined_16_31_IRQHandler
 .text.GPIO2_Combined_0_15_IRQHandler
                0x60007258        0x8 ./startup/startup_mimxrt1011.o
                0x60007258                GPIO2_Combined_0_15_IRQHandler
 .text.GPIO5_Combined_0_15_IRQHandler
                0x60007260        0x8 ./startup/startup_mimxrt1011.o
                0x60007260                GPIO5_Combined_0_15_IRQHandler
 .text.WDOG1_IRQHandler
                0x60007268        0x8 ./startup/startup_mimxrt1011.o
                0x60007268                WDOG1_IRQHandler
 .text.ADC_ETC_IRQ0_IRQHandler
                0x60007270        0x8 ./startup/startup_mimxrt1011.o
                0x60007270                ADC_ETC_IRQ0_IRQHandler
 .text.ADC_ETC_IRQ1_IRQHandler
                0x60007278        0x8 ./startup/startup_mimxrt1011.o
                0x60007278                ADC_ETC_IRQ1_IRQHandler
 .text.ADC_ETC_IRQ2_IRQHandler
                0x60007280        0x8 ./startup/startup_mimxrt1011.o
                0x60007280                ADC_ETC_IRQ2_IRQHandler
 .text.ADC_ETC_IRQ3_IRQHandler
                0x60007288        0x8 ./startup/startup_mimxrt1011.o
                0x60007288                ADC_ETC_IRQ3_IRQHandler
 .text.ADC_ETC_ERROR_IRQ_IRQHandler
                0x60007290        0x8 ./startup/startup_mimxrt1011.o
                0x60007290                ADC_ETC_ERROR_IRQ_IRQHandler
 .text.HardFault_Handler
                0x60007298       0x2c ./source/semihost_hardfault.o
                0x60007298                HardFault_Handler
 .text.USB_HostEvent
                0x600072c4       0x48 ./source/speakEZ.o
                0x600072c4                USB_HostEvent
 .text.writeToWM8960
                0x6000730c       0xd8 ./source/speakEZ.o
                0x6000730c                writeToWM8960
 .text.configureWM8960
                0x600073e4       0xc0 ./source/speakEZ.o
                0x600073e4                configureWM8960
 .text.setWavetableSine
                0x600074a4       0x58 ./source/speakEZ.o
                0x600074a4                setWavetableSine
 .text.initSynth
                0x600074fc       0xe4 ./source/speakEZ.o
                0x600074fc                initSynth
 .text.playSynth
                0x600075e0       0xd8 ./source/speakEZ.o
                0x600075e0                playSynth
 .text.runAnalysisBiquad
                0x600076b8       0x84 ./source/speakEZ.o
                0x600076b8                runAnalysisBiquad
 .text.SAI1_IRQHandler
                0x6000773c       0x54 ./source/speakEZ.o
                0x6000773c                SAI1_IRQHandler
 .text.PIT_IRQHandler
                0x60007790       0x40 ./source/speakEZ.o
                0x60007790                PIT_IRQHandler
 .text.USB_HostApplicationInit
                0x600077d0       0x3c ./source/speakEZ.o
                0x600077d0                USB_HostApplicationInit
 .text.USB_OTG1_IRQHandler
                0x6000780c        0xc ./source/speakEZ.o
                0x6000780c                USB_OTG1_IRQHandler
 .text.midiInterruptRecvCallback
                0x60007818       0x54 ./source/usbmidi.o
 .text.midiControlCallback
                0x6000786c       0x60 ./source/usbmidi.o
 .text.USB_HostClockInit
                0x600078cc       0x40 ./source/usbmidi.o
                0x600078cc                USB_HostClockInit
 .text.USB_HostIsrEnable
                0x6000790c       0x14 ./source/usbmidi.o
                0x6000790c                USB_HostIsrEnable
 .text.USB_HostTaskFn
                0x60007920        0x4 ./source/usbmidi.o
                0x60007920                USB_HostTaskFn
 .text.USB_HostMidiTask
                0x60007924      0x14c ./source/usbmidi.o
                0x60007924                USB_HostMidiTask
 .text.USB_HostMidiEvent
                0x60007a70      0x1c8 ./source/usbmidi.o
                0x60007a70                USB_HostMidiEvent
 .text.USB_OsaMemoryAllocate
                0x60007c38       0x48 ./osa/usb_osa_bm.o
                0x60007c38                USB_OsaMemoryAllocate
 .text.USB_OsaMemoryFree
                0x60007c80        0x4 ./osa/usb_osa_bm.o
                0x60007c80                USB_OsaMemoryFree
 .text.USB_OsaEnterCritical
                0x60007c84        0xc ./osa/usb_osa_bm.o
                0x60007c84                USB_OsaEnterCritical
 .text.USB_OsaExitCritical
                0x60007c90        0x8 ./osa/usb_osa_bm.o
                0x60007c90                USB_OsaExitCritical
 .text.USB_OsaEventCreate
                0x60007c98       0x5c ./osa/usb_osa_bm.o
                0x60007c98                USB_OsaEventCreate
 .text.USB_OsaEventDestroy
                0x60007cf4       0x1c ./osa/usb_osa_bm.o
                0x60007cf4                USB_OsaEventDestroy
 .text.USB_OsaEventSet
                0x60007d10       0x1c ./osa/usb_osa_bm.o
                0x60007d10                USB_OsaEventSet
 .text.USB_OsaEventWait
                0x60007d2c       0x48 ./osa/usb_osa_bm.o
                0x60007d2c                USB_OsaEventWait
 .text.USB_OsaMutexCreate
                0x60007d74       0x14 ./osa/usb_osa_bm.o
                0x60007d74                USB_OsaMutexCreate
 .text.USB_OsaMutexDestroy
                0x60007d88        0x4 ./osa/usb_osa_bm.o
                0x60007d88                USB_OsaMutexDestroy
 .text.USB_OsaMutexLock
                0x60007d8c        0x4 ./osa/usb_osa_bm.o
                0x60007d8c                USB_OsaMutexLock
 .text.USB_OsaMutexUnlock
                0x60007d90        0x4 ./osa/usb_osa_bm.o
                0x60007d90                USB_OsaMutexUnlock
 .text.CLOCK_InitExternalClk
                0x60007d94       0x34 ./drivers/fsl_clock.o
                0x60007d94                CLOCK_InitExternalClk
 .text.CLOCK_SwitchOsc
                0x60007dc8       0x18 ./drivers/fsl_clock.o
                0x60007dc8                CLOCK_SwitchOsc
 .text.CLOCK_InitRcOsc24M
                0x60007de0       0x14 ./drivers/fsl_clock.o
                0x60007de0                CLOCK_InitRcOsc24M
 .text.CLOCK_EnableUsbhs0Clock
                0x60007df4       0x6c ./drivers/fsl_clock.o
                0x60007df4                CLOCK_EnableUsbhs0Clock
 .text.CLOCK_EnableUsbhs0PhyPllClock
                0x60007e60       0x68 ./drivers/fsl_clock.o
                0x60007e60                CLOCK_EnableUsbhs0PhyPllClock
 .text.CLOCK_InitSysPll
                0x60007ec8       0x70 ./drivers/fsl_clock.o
                0x60007ec8                CLOCK_InitSysPll
 .text.CLOCK_DeinitAudioPll
                0x60007f38       0x10 ./drivers/fsl_clock.o
                0x60007f38                CLOCK_DeinitAudioPll
 .text.CLOCK_InitEnetPll
                0x60007f48       0x58 ./drivers/fsl_clock.o
                0x60007f48                CLOCK_InitEnetPll
 .text.CLOCK_GetPllFreq
                0x60007fa0      0x118 ./drivers/fsl_clock.o
                0x60007fa0                CLOCK_GetPllFreq
 .text.CLOCK_InitSysPfd
                0x600080b8       0x34 ./drivers/fsl_clock.o
                0x600080b8                CLOCK_InitSysPfd
 .text.DMA0_DriverIRQHandler
                0x600080ec       0xa8 ./drivers/fsl_edma.o
                0x600080ec                DMA0_DriverIRQHandler
 .text.DMA1_DriverIRQHandler
                0x60008194       0xa8 ./drivers/fsl_edma.o
                0x60008194                DMA1_DriverIRQHandler
 .text.DMA2_DriverIRQHandler
                0x6000823c       0xa8 ./drivers/fsl_edma.o
                0x6000823c                DMA2_DriverIRQHandler
 .text.DMA3_DriverIRQHandler
                0x600082e4       0xa8 ./drivers/fsl_edma.o
                0x600082e4                DMA3_DriverIRQHandler
 .text.DMA4_DriverIRQHandler
                0x6000838c       0xa8 ./drivers/fsl_edma.o
                0x6000838c                DMA4_DriverIRQHandler
 .text.DMA5_DriverIRQHandler
                0x60008434       0xa8 ./drivers/fsl_edma.o
                0x60008434                DMA5_DriverIRQHandler
 .text.DMA6_DriverIRQHandler
                0x600084dc       0xa8 ./drivers/fsl_edma.o
                0x600084dc                DMA6_DriverIRQHandler
 .text.DMA7_DriverIRQHandler
                0x60008584       0xa8 ./drivers/fsl_edma.o
                0x60008584                DMA7_DriverIRQHandler
 .text.DMA8_DriverIRQHandler
                0x6000862c       0xa8 ./drivers/fsl_edma.o
                0x6000862c                DMA8_DriverIRQHandler
 .text.DMA9_DriverIRQHandler
                0x600086d4       0xa8 ./drivers/fsl_edma.o
                0x600086d4                DMA9_DriverIRQHandler
 .text.DMA10_DriverIRQHandler
                0x6000877c       0xa8 ./drivers/fsl_edma.o
                0x6000877c                DMA10_DriverIRQHandler
 .text.DMA11_DriverIRQHandler
                0x60008824       0xa8 ./drivers/fsl_edma.o
                0x60008824                DMA11_DriverIRQHandler
 .text.DMA12_DriverIRQHandler
                0x600088cc       0xa8 ./drivers/fsl_edma.o
                0x600088cc                DMA12_DriverIRQHandler
 .text.DMA13_DriverIRQHandler
                0x60008974       0xa8 ./drivers/fsl_edma.o
                0x60008974                DMA13_DriverIRQHandler
 .text.DMA14_DriverIRQHandler
                0x60008a1c       0xa8 ./drivers/fsl_edma.o
                0x60008a1c                DMA14_DriverIRQHandler
 .text.DMA15_DriverIRQHandler
                0x60008ac4       0xa8 ./drivers/fsl_edma.o
                0x60008ac4                DMA15_DriverIRQHandler
 .text.GPIO_PinInit
                0x60008b6c       0xf8 ./drivers/fsl_gpio.o
                0x60008b6c                GPIO_PinInit
 .text.LPI2C_MasterSetBaudRate
                0x60008c64      0x12c ./drivers/fsl_lpi2c.o
                0x60008c64                LPI2C_MasterSetBaudRate
 .text.LPI2C_MasterInit
                0x60008d90      0x354 ./drivers/fsl_lpi2c.o
                0x60008d90                LPI2C_MasterInit
 .text.LPI2C_MasterReceive
                0x600090e4       0xb4 ./drivers/fsl_lpi2c.o
                0x600090e4                LPI2C_MasterReceive
 .text.LPI2C_MasterTransferBlocking
                0x60009198      0x3f0 ./drivers/fsl_lpi2c.o
                0x60009198                LPI2C_MasterTransferBlocking
 .text.LPI2C1_DriverIRQHandler
                0x60009588       0x60 ./drivers/fsl_lpi2c.o
                0x60009588                LPI2C1_DriverIRQHandler
 .text.LPI2C2_DriverIRQHandler
                0x600095e8       0x60 ./drivers/fsl_lpi2c.o
                0x600095e8                LPI2C2_DriverIRQHandler
 .text.LPUART_Init
                0x60009648      0x244 ./drivers/fsl_lpuart.o
                0x60009648                LPUART_Init
 .text.LPUART_GetDefaultConfig
                0x6000988c       0x20 ./drivers/fsl_lpuart.o
                0x6000988c                LPUART_GetDefaultConfig
 .text.LPUART1_DriverIRQHandler
                0x600098ac       0x18 ./drivers/fsl_lpuart.o
                0x600098ac                LPUART1_DriverIRQHandler
 .text.LPUART2_DriverIRQHandler
                0x600098c4       0x18 ./drivers/fsl_lpuart.o
                0x600098c4                LPUART2_DriverIRQHandler
 .text.LPUART3_DriverIRQHandler
                0x600098dc       0x18 ./drivers/fsl_lpuart.o
                0x600098dc                LPUART3_DriverIRQHandler
 .text.LPUART4_DriverIRQHandler
                0x600098f4       0x18 ./drivers/fsl_lpuart.o
                0x600098f4                LPUART4_DriverIRQHandler
 .text.PIT_Init
                0x6000990c       0x68 ./drivers/fsl_pit.o
                0x6000990c                PIT_Init
 .text.SAI_Init
                0x60009974       0x50 ./drivers/fsl_sai.o
                0x60009974                SAI_Init
 .text.SAI_TxEnable
                0x600099c4       0x50 ./drivers/fsl_sai.o
                0x600099c4                SAI_TxEnable
 .text.SAI_RxEnable
                0x60009a14       0x58 ./drivers/fsl_sai.o
                0x60009a14                SAI_RxEnable
 .text.SAI_TxSetBitClockRate
                0x60009a6c       0x38 ./drivers/fsl_sai.o
                0x60009a6c                SAI_TxSetBitClockRate
 .text.SAI_RxSetBitClockRate
                0x60009aa4       0x3c ./drivers/fsl_sai.o
                0x60009aa4                SAI_RxSetBitClockRate
 .text.SAI_TxSetConfig
                0x60009ae0      0x208 ./drivers/fsl_sai.o
                0x60009ae0                SAI_TxSetConfig
 .text.SAI_RxSetConfig
                0x60009ce8      0x238 ./drivers/fsl_sai.o
                0x60009ce8                SAI_RxSetConfig
 .text.SAI3_TX_DriverIRQHandler
                0x60009f20       0x18 ./drivers/fsl_sai.o
                0x60009f20                SAI3_TX_DriverIRQHandler
 .text.SAI3_RX_DriverIRQHandler
                0x60009f38       0x18 ./drivers/fsl_sai.o
                0x60009f38                SAI3_RX_DriverIRQHandler
 .text.SystemInit
                0x60009f50      0x130 ./device/system_MIMXRT1011.o
                0x60009f50                SystemInit
 .text.HAL_UartInit
                0x6000a080       0x7c ./component/uart/lpuart_adapter.o
                0x6000a080                HAL_UartInit
 .text.SerialManager_Init
                0x6000a0fc       0x2c ./component/serial_manager/serial_manager.o
                0x6000a0fc                SerialManager_Init
 .text.SerialManager_OpenWriteHandle
                0x6000a128       0x28 ./component/serial_manager/serial_manager.o
                0x6000a128                SerialManager_OpenWriteHandle
 .text.SerialManager_OpenReadHandle
                0x6000a150       0x30 ./component/serial_manager/serial_manager.o
                0x6000a150                SerialManager_OpenReadHandle
 .text.Serial_UartInit
                0x6000a180       0x3c ./component/serial_manager/serial_port_uart.o
                0x6000a180                Serial_UartInit
 .text.BOARD_InitDebugConsole
                0x6000a1bc       0x70 ./board/board.o
                0x6000a1bc                BOARD_InitDebugConsole
 .text.SystemInitHook
                0x6000a22c       0x10 ./board/board.o
                0x6000a22c                SystemInitHook
 .text.BOARD_BootClockRUN
                0x6000a23c      0x474 ./board/clock_config.o
                0x6000a23c                BOARD_BootClockRUN
 .text.BOARD_InitBootClocks
                0x6000a6b0        0x4 ./board/clock_config.o
                0x6000a6b0                BOARD_InitBootClocks
 .text.BOARD_InitBootPeripherals
                0x6000a6b4       0xd8 ./board/peripherals.o
                0x6000a6b4                BOARD_InitBootPeripherals
 .text.BOARD_InitPins
                0x6000a78c      0x164 ./board/pin_mux.o
                0x6000a78c                BOARD_InitPins
 .text.BOARD_InitBootPins
                0x6000a8f0       0x3c ./board/pin_mux.o
                0x6000a8f0                BOARD_InitBootPins
 .text.arm_sin_f32
                0x6000a92c       0x8c F:\Dropbox\Hardware Development\MCUXpresso\11.0.1\workspace\speakEZ\libs\libarm_cortexM7lfsp_math.a(arm_sin_f32.o)
                0x6000a92c                arm_sin_f32
 .text.arm_cos_f32
                0x6000a9b8       0x94 F:\Dropbox\Hardware Development\MCUXpresso\11.0.1\workspace\speakEZ\libs\libarm_cortexM7lfsp_math.a(arm_cos_f32.o)
                0x6000a9b8                arm_cos_f32
 .text.logf     0x6000aa4c       0xe4 c:/nxp/mcuxpressoide_11.0.1_2563/ide/plugins/com.nxp.mcuxpresso.tools.win32_11.0.1.201907311258/tools/bin/../lib/gcc/arm-none-eabi/8.2.1/../../../../arm-none-eabi/lib/thumb/v7e-m+fp/hard\libcr_c.a(logf.o)
                0x6000aa4c                logf
 .text.sinhf    0x6000ab30      0x120 c:/nxp/mcuxpressoide_11.0.1_2563/ide/plugins/com.nxp.mcuxpresso.tools.win32_11.0.1.201907311258/tools/bin/../lib/gcc/arm-none-eabi/8.2.1/../../../../arm-none-eabi/lib/thumb/v7e-m+fp/hard\libcr_c.a(sinhf.o)
                0x6000ab30                sinhf
 .text.malloc   0x6000ac50       0xc8 c:/nxp/mcuxpressoide_11.0.1_2563/ide/plugins/com.nxp.mcuxpresso.tools.win32_11.0.1.201907311258/tools/bin/../lib/gcc/arm-none-eabi/8.2.1/../../../../arm-none-eabi/lib/thumb/v7e-m+fp/hard\libcr_c.a(alloc.o)
                0x6000ac50                malloc
 .text._Csys_alloc
                0x6000ad18       0x20 c:/nxp/mcuxpressoide_11.0.1_2563/ide/plugins/com.nxp.mcuxpresso.tools.win32_11.0.1.201907311258/tools/bin/../lib/gcc/arm-none-eabi/8.2.1/../../../../arm-none-eabi/lib/thumb/v7e-m+fp/hard\libcr_c.a(alloc.o)
                0x6000ad18                _Csys_alloc
 .text._initio  0x6000ad38       0x78 c:/nxp/mcuxpressoide_11.0.1_2563/ide/plugins/com.nxp.mcuxpresso.tools.win32_11.0.1.201907311258/tools/bin/../lib/gcc/arm-none-eabi/8.2.1/../../../../arm-none-eabi/lib/thumb/v7e-m+fp/hard\libcr_c.a(initio.o)
                0x6000ad38                _initio
 .text.__vfprintf
                0x6000adb0      0xbe0 c:/nxp/mcuxpressoide_11.0.1_2563/ide/plugins/com.nxp.mcuxpresso.tools.win32_11.0.1.201907311258/tools/bin/../lib/gcc/arm-none-eabi/8.2.1/../../../../arm-none-eabi/lib/thumb/v7e-m+fp/hard\libcr_c.a(printf.o)
                0x6000adb0                __vfprintf
 .text._vsnprintf
                0x6000b990       0x68 c:/nxp/mcuxpressoide_11.0.1_2563/ide/plugins/com.nxp.mcuxpresso.tools.win32_11.0.1.201907311258/tools/bin/../lib/gcc/arm-none-eabi/8.2.1/../../../../arm-none-eabi/lib/thumb/v7e-m+fp/hard\libcr_c.a(printf.o)
                0x6000b990                _vsnprintf
 .text._printf  0x6000b9f8       0x54 c:/nxp/mcuxpressoide_11.0.1_2563/ide/plugins/com.nxp.mcuxpresso.tools.win32_11.0.1.201907311258/tools/bin/../lib/gcc/arm-none-eabi/8.2.1/../../../../arm-none-eabi/lib/thumb/v7e-m+fp/hard\libcr_c.a(printf.o)
                0x6000b9f8                _printf
 .text.setvbuf  0x6000ba4c       0x40 c:/nxp/mcuxpressoide_11.0.1_2563/ide/plugins/com.nxp.mcuxpresso.tools.win32_11.0.1.201907311258/tools/bin/../lib/gcc/arm-none-eabi/8.2.1/../../../../arm-none-eabi/lib/thumb/v7e-m+fp/hard\libcr_c.a(setvbuf.o)
                0x6000ba4c                setvbuf
 .text.expf     0x6000ba8c      0x10c c:/nxp/mcuxpressoide_11.0.1_2563/ide/plugins/com.nxp.mcuxpresso.tools.win32_11.0.1.201907311258/tools/bin/../lib/gcc/arm-none-eabi/8.2.1/../../../../arm-none-eabi/lib/thumb/v7e-m+fp/hard\libcr_c.a(expf.o)
                0x6000ba8c                expf
 .text.frexpf   0x6000bb98       0x54 c:/nxp/mcuxpressoide_11.0.1_2563/ide/plugins/com.nxp.mcuxpresso.tools.win32_11.0.1.201907311258/tools/bin/../lib/gcc/arm-none-eabi/8.2.1/../../../../arm-none-eabi/lib/thumb/v7e-m+fp/hard\libcr_c.a(frexpf.o)
                0x6000bb98                frexpf
 .text.ldexpf   0x6000bbec       0x40 c:/nxp/mcuxpressoide_11.0.1_2563/ide/plugins/com.nxp.mcuxpresso.tools.win32_11.0.1.201907311258/tools/bin/../lib/gcc/arm-none-eabi/8.2.1/../../../../arm-none-eabi/lib/thumb/v7e-m+fp/hard\libcr_c.a(ldexpf.o)
                0x6000bbec                ldexpf
 .text._sbrk    0x6000bc2c       0x3c c:/nxp/mcuxpressoide_11.0.1_2563/ide/plugins/com.nxp.mcuxpresso.tools.win32_11.0.1.201907311258/tools/bin/../lib/gcc/arm-none-eabi/8.2.1/../../../../arm-none-eabi/lib/thumb/v7e-m+fp/hard\libcr_c.a(_cr_sbrk.o)
                0x6000bc2c                _sbrk
 .text._Cwritebuf
                0x6000bc68       0x6c c:/nxp/mcuxpressoide_11.0.1_2563/ide/plugins/com.nxp.mcuxpresso.tools.win32_11.0.1.201907311258/tools/bin/../lib/gcc/arm-none-eabi/8.2.1/../../../../arm-none-eabi/lib/thumb/v7e-m+fp/hard\libcr_c.a(_writebuf.o)
                0x6000bc68                _Cwritebuf
 .text.fflush   0x6000bcd4       0x44 c:/nxp/mcuxpressoide_11.0.1_2563/ide/plugins/com.nxp.mcuxpresso.tools.win32_11.0.1.201907311258/tools/bin/../lib/gcc/arm-none-eabi/8.2.1/../../../../arm-none-eabi/lib/thumb/v7e-m+fp/hard\libcr_c.a(fflush.o)
                0x6000bcd4                fflush
 .text.fseek    0x6000bd18      0x100 c:/nxp/mcuxpressoide_11.0.1_2563/ide/plugins/com.nxp.mcuxpresso.tools.win32_11.0.1.201907311258/tools/bin/../lib/gcc/arm-none-eabi/8.2.1/../../../../arm-none-eabi/lib/thumb/v7e-m+fp/hard\libcr_c.a(fseek.o)
                0x6000bd18                fseek
 .text.ftell    0x6000be18       0x48 c:/nxp/mcuxpressoide_11.0.1_2563/ide/plugins/com.nxp.mcuxpresso.tools.win32_11.0.1.201907311258/tools/bin/../lib/gcc/arm-none-eabi/8.2.1/../../../../arm-none-eabi/lib/thumb/v7e-m+fp/hard\libcr_c.a(ftell.o)
                0x6000be18                ftell
 .text.__check_heap_overflow
                0x6000be60       0x18 c:/nxp/mcuxpressoide_11.0.1_2563/ide/plugins/com.nxp.mcuxpresso.tools.win32_11.0.1.201907311258/tools/bin/../lib/gcc/arm-none-eabi/8.2.1/../../../../arm-none-eabi/lib/thumb/v7e-m+fp/hard\libcr_c.a(_cr_check_heap.o)
                0x6000be60                __check_heap_overflow
 .text.__aeabi_dmul
                0x6000be78      0x114 c:/nxp/mcuxpressoide_11.0.1_2563/ide/plugins/com.nxp.mcuxpresso.tools.win32_11.0.1.201907311258/tools/bin/../lib/gcc/arm-none-eabi/8.2.1/thumb/v7e-m+fp/hard\libcr_eabihelpers.a(double.o)
                0x6000be78                __aeabi_dmul
 .text.__aeabi_ddiv
                0x6000bf8c      0x150 c:/nxp/mcuxpressoide_11.0.1_2563/ide/plugins/com.nxp.mcuxpresso.tools.win32_11.0.1.201907311258/tools/bin/../lib/gcc/arm-none-eabi/8.2.1/thumb/v7e-m+fp/hard\libcr_eabihelpers.a(double.o)
                0x6000bf8c                __aeabi_ddiv
 .text.__aeabi_dsub
                0x6000c0dc      0x1ac c:/nxp/mcuxpressoide_11.0.1_2563/ide/plugins/com.nxp.mcuxpresso.tools.win32_11.0.1.201907311258/tools/bin/../lib/gcc/arm-none-eabi/8.2.1/thumb/v7e-m+fp/hard\libcr_eabihelpers.a(double.o)
                0x6000c0dc                __aeabi_dsub
 .text.__aeabi_dadd
                0x6000c288      0x114 c:/nxp/mcuxpressoide_11.0.1_2563/ide/plugins/com.nxp.mcuxpresso.tools.win32_11.0.1.201907311258/tools/bin/../lib/gcc/arm-none-eabi/8.2.1/thumb/v7e-m+fp/hard\libcr_eabihelpers.a(double.o)
                0x6000c288                __aeabi_dadd
 .text.__aeabi_d2f
                0x6000c39c       0x50 c:/nxp/mcuxpressoide_11.0.1_2563/ide/plugins/com.nxp.mcuxpresso.tools.win32_11.0.1.201907311258/tools/bin/../lib/gcc/arm-none-eabi/8.2.1/thumb/v7e-m+fp/hard\libcr_eabihelpers.a(double.o)
                0x6000c39c                __aeabi_d2f
 .text.__aeabi_f2d
                0x6000c3ec       0x38 c:/nxp/mcuxpressoide_11.0.1_2563/ide/plugins/com.nxp.mcuxpresso.tools.win32_11.0.1.201907311258/tools/bin/../lib/gcc/arm-none-eabi/8.2.1/thumb/v7e-m+fp/hard\libcr_eabihelpers.a(float.o)
                0x6000c3ec                __aeabi_f2d
 .text.__sys_appexit
                0x6000c424        0xc c:/nxp/mcuxpressoide_11.0.1_2563/ide/plugins/com.nxp.mcuxpresso.tools.win32_11.0.1.201907311258/tools/bin/../lib/gcc/arm-none-eabi/8.2.1/../../../../arm-none-eabi/lib/thumb/v7e-m+fp/hard\libcr_semihost_nf.a(__sys_appexit.o)
                0x6000c424                __sys_appexit
                0x6000c424                __exit
 .text.__main   0x6000c430        0xe c:/nxp/mcuxpressoide_11.0.1_2563/ide/plugins/com.nxp.mcuxpresso.tools.win32_11.0.1.201907311258/tools/bin/../lib/gcc/arm-none-eabi/8.2.1/../../../../arm-none-eabi/lib/thumb/v7e-m+fp/hard\libcr_semihost_nf.a(_cr__main.o)
                0x6000c430                __CR_SEMIHOST
                0x6000c430                __main
 .text.fabsf    0x6000c43e       0x10 c:/nxp/mcuxpressoide_11.0.1_2563/ide/plugins/com.nxp.mcuxpresso.tools.win32_11.0.1.201907311258/tools/bin/../lib/gcc/arm-none-eabi/8.2.1/../../../../arm-none-eabi/lib/thumb/v7e-m+fp/hard\libcr_c.a(fabsf.o)
                0x6000c43e                fabsf
 .text.memset   0x6000c44e        0x4 c:/nxp/mcuxpressoide_11.0.1_2563/ide/plugins/com.nxp.mcuxpresso.tools.win32_11.0.1.201907311258/tools/bin/../lib/gcc/arm-none-eabi/8.2.1/../../../../arm-none-eabi/lib/thumb/v7e-m+fp/hard\libcr_c.a(memset.o)
                0x6000c44e                memset
 .text.free     0x6000c452       0x30 c:/nxp/mcuxpressoide_11.0.1_2563/ide/plugins/com.nxp.mcuxpresso.tools.win32_11.0.1.201907311258/tools/bin/../lib/gcc/arm-none-eabi/8.2.1/../../../../arm-none-eabi/lib/thumb/v7e-m+fp/hard\libcr_c.a(alloc.o)
                0x6000c452                free
 .text.no_fp_display
                0x6000c482        0x4 c:/nxp/mcuxpressoide_11.0.1_2563/ide/plugins/com.nxp.mcuxpresso.tools.win32_11.0.1.201907311258/tools/bin/../lib/gcc/arm-none-eabi/8.2.1/../../../../arm-none-eabi/lib/thumb/v7e-m+fp/hard\libcr_c.a(printf.o)
 .text.strlen   0x6000c486       0x4c c:/nxp/mcuxpressoide_11.0.1_2563/ide/plugins/com.nxp.mcuxpresso.tools.win32_11.0.1.201907311258/tools/bin/../lib/gcc/arm-none-eabi/8.2.1/../../../../arm-none-eabi/lib/thumb/v7e-m+fp/hard\libcr_c.a(strlen.o)
                0x6000c486                strlen
 .text._deferredlazyseek
                0x6000c4d2       0x40 c:/nxp/mcuxpressoide_11.0.1_2563/ide/plugins/com.nxp.mcuxpresso.tools.win32_11.0.1.201907311258/tools/bin/../lib/gcc/arm-none-eabi/8.2.1/../../../../arm-none-eabi/lib/thumb/v7e-m+fp/hard\libcr_c.a(_deferredlazyseek.o)
                0x6000c4d2                _deferredlazyseek
 .text.__flsbuf
                0x6000c512      0x140 c:/nxp/mcuxpressoide_11.0.1_2563/ide/plugins/com.nxp.mcuxpresso.tools.win32_11.0.1.201907311258/tools/bin/../lib/gcc/arm-none-eabi/8.2.1/../../../../arm-none-eabi/lib/thumb/v7e-m+fp/hard\libcr_c.a(_deferredlazyseek.o)
                0x6000c512                __flsbuf
 .text._fdopen  0x6000c652       0x68 c:/nxp/mcuxpressoide_11.0.1_2563/ide/plugins/com.nxp.mcuxpresso.tools.win32_11.0.1.201907311258/tools/bin/../lib/gcc/arm-none-eabi/8.2.1/../../../../arm-none-eabi/lib/thumb/v7e-m+fp/hard\libcr_c.a(_fdopen.o)
                0x6000c652                _fdopen
 .text._fflush  0x6000c6ba       0x52 c:/nxp/mcuxpressoide_11.0.1_2563/ide/plugins/com.nxp.mcuxpresso.tools.win32_11.0.1.201907311258/tools/bin/../lib/gcc/arm-none-eabi/8.2.1/../../../../arm-none-eabi/lib/thumb/v7e-m+fp/hard\libcr_c.a(_fflush.o)
                0x6000c6ba                _fflush
 .text.fclose   0x6000c70c       0x58 c:/nxp/mcuxpressoide_11.0.1_2563/ide/plugins/com.nxp.mcuxpresso.tools.win32_11.0.1.201907311258/tools/bin/../lib/gcc/arm-none-eabi/8.2.1/../../../../arm-none-eabi/lib/thumb/v7e-m+fp/hard\libcr_c.a(fclose.o)
                0x6000c70c                fclose
 .text.remove   0x6000c764       0x14 c:/nxp/mcuxpressoide_11.0.1_2563/ide/plugins/com.nxp.mcuxpresso.tools.win32_11.0.1.201907311258/tools/bin/../lib/gcc/arm-none-eabi/8.2.1/../../../../arm-none-eabi/lib/thumb/v7e-m+fp/hard\libcr_c.a(remove.o)
                0x6000c764                remove
 .text._do_fflush
                0x6000c778       0x40 c:/nxp/mcuxpressoide_11.0.1_2563/ide/plugins/com.nxp.mcuxpresso.tools.win32_11.0.1.201907311258/tools/bin/../lib/gcc/arm-none-eabi/8.2.1/../../../../arm-none-eabi/lib/thumb/v7e-m+fp/hard\libcr_c.a(_do_fflush.o)
                0x6000c778                _do_fflush
 .text.__aeabi_division_uldivmod
                0x6000c7b8      0x174 c:/nxp/mcuxpressoide_11.0.1_2563/ide/plugins/com.nxp.mcuxpresso.tools.win32_11.0.1.201907311258/tools/bin/../lib/gcc/arm-none-eabi/8.2.1/thumb/v7e-m+fp/hard\libcr_eabihelpers.a(division_64.o)
                0x6000c7b8                __aeabi_uldivmod
                0x6000c7bc                __bhs_ldivmod1
 .text.__aeabi_division_idiv0
                0x6000c92c        0x2 c:/nxp/mcuxpressoide_11.0.1_2563/ide/plugins/com.nxp.mcuxpresso.tools.win32_11.0.1.201907311258/tools/bin/../lib/gcc/arm-none-eabi/8.2.1/thumb/v7e-m+fp/hard\libcr_eabihelpers.a(division_idiv0.o)
                0x6000c92c                __aeabi_idiv0
 .text.__aeabi_d2iz
                0x6000c92e       0x40 c:/nxp/mcuxpressoide_11.0.1_2563/ide/plugins/com.nxp.mcuxpresso.tools.win32_11.0.1.201907311258/tools/bin/../lib/gcc/arm-none-eabi/8.2.1/thumb/v7e-m+fp/hard\libcr_eabihelpers.a(double.o)
                0x6000c92e                __aeabi_d2iz
 .text.__bhs_ui2d
                0x6000c96e       0x46 c:/nxp/mcuxpressoide_11.0.1_2563/ide/plugins/com.nxp.mcuxpresso.tools.win32_11.0.1.201907311258/tools/bin/../lib/gcc/arm-none-eabi/8.2.1/thumb/v7e-m+fp/hard\libcr_eabihelpers.a(double.o)
                0x6000c96e                __bhs_ui2d
 .text.__aeabi_ui2d
                0x6000c9b4        0x8 c:/nxp/mcuxpressoide_11.0.1_2563/ide/plugins/com.nxp.mcuxpresso.tools.win32_11.0.1.201907311258/tools/bin/../lib/gcc/arm-none-eabi/8.2.1/thumb/v7e-m+fp/hard\libcr_eabihelpers.a(double.o)
                0x6000c9b4                __aeabi_ui2d
 .text.__aeabi_dcmple
                0x6000c9bc       0x56 c:/nxp/mcuxpressoide_11.0.1_2563/ide/plugins/com.nxp.mcuxpresso.tools.win32_11.0.1.201907311258/tools/bin/../lib/gcc/arm-none-eabi/8.2.1/thumb/v7e-m+fp/hard\libcr_eabihelpers.a(double.o)
                0x6000c9bc                __aeabi_dcmple
 .text.__aeabi_dcmpge
                0x6000ca12       0x5c c:/nxp/mcuxpressoide_11.0.1_2563/ide/plugins/com.nxp.mcuxpresso.tools.win32_11.0.1.201907311258/tools/bin/../lib/gcc/arm-none-eabi/8.2.1/thumb/v7e-m+fp/hard\libcr_eabihelpers.a(double.o)
                0x6000ca12                __aeabi_dcmpge
 .text.__aeabi_memset_lowlevel
                0x6000ca6e       0x32 c:/nxp/mcuxpressoide_11.0.1_2563/ide/plugins/com.nxp.mcuxpresso.tools.win32_11.0.1.201907311258/tools/bin/../lib/gcc/arm-none-eabi/8.2.1/thumb/v7e-m+fp/hard\libcr_eabihelpers.a(memcpy.o)
                0x6000ca6e                __aeabi_lowlevel_memset
 .text.__sys_close
                0x6000caa0        0xc c:/nxp/mcuxpressoide_11.0.1_2563/ide/plugins/com.nxp.mcuxpresso.tools.win32_11.0.1.201907311258/tools/bin/../lib/gcc/arm-none-eabi/8.2.1/../../../../arm-none-eabi/lib/thumb/v7e-m+fp/hard\libcr_semihost_nf.a(__sys_close.o)
                0x6000caa0                __sys_close
 .text.__sys_flen
                0x6000caac        0xc c:/nxp/mcuxpressoide_11.0.1_2563/ide/plugins/com.nxp.mcuxpresso.tools.win32_11.0.1.201907311258/tools/bin/../lib/gcc/arm-none-eabi/8.2.1/../../../../arm-none-eabi/lib/thumb/v7e-m+fp/hard\libcr_semihost_nf.a(__sys_flen.o)
                0x6000caac                __sys_flen
 .text.__sys_istty
                0x6000cab8        0xc c:/nxp/mcuxpressoide_11.0.1_2563/ide/plugins/com.nxp.mcuxpresso.tools.win32_11.0.1.201907311258/tools/bin/../lib/gcc/arm-none-eabi/8.2.1/../../../../arm-none-eabi/lib/thumb/v7e-m+fp/hard\libcr_semihost_nf.a(__sys_istty.o)
                0x6000cab8                __sys_istty
 .text.__sys_remove
                0x6000cac4        0xc c:/nxp/mcuxpressoide_11.0.1_2563/ide/plugins/com.nxp.mcuxpresso.tools.win32_11.0.1.201907311258/tools/bin/../lib/gcc/arm-none-eabi/8.2.1/../../../../arm-none-eabi/lib/thumb/v7e-m+fp/hard\libcr_semihost_nf.a(__sys_remove.o)
                0x6000cac4                __sys_remove
 .text.__sys_seek
                0x6000cad0        0xc c:/nxp/mcuxpressoide_11.0.1_2563/ide/plugins/com.nxp.mcuxpresso.tools.win32_11.0.1.201907311258/tools/bin/../lib/gcc/arm-none-eabi/8.2.1/../../../../arm-none-eabi/lib/thumb/v7e-m+fp/hard\libcr_semihost_nf.a(__sys_seek.o)
                0x6000cad0                __sys_seek
 .text.__sys_tmpnam
                0x6000cadc        0xc c:/nxp/mcuxpressoide_11.0.1_2563/ide/plugins/com.nxp.mcuxpresso.tools.win32_11.0.1.201907311258/tools/bin/../lib/gcc/arm-none-eabi/8.2.1/../../../../arm-none-eabi/lib/thumb/v7e-m+fp/hard\libcr_semihost_nf.a(__sys_tmpnam.o)
                0x6000cadc                __sys_tmpnam
 .text.__sys_write
                0x6000cae8        0xc c:/nxp/mcuxpressoide_11.0.1_2563/ide/plugins/com.nxp.mcuxpresso.tools.win32_11.0.1.201907311258/tools/bin/../lib/gcc/arm-none-eabi/8.2.1/../../../../arm-none-eabi/lib/thumb/v7e-m+fp/hard\libcr_semihost_nf.a(__sys_write.o)
                0x6000cae8                __sys_write
 *(SORT_BY_ALIGNMENT(.rodata) SORT_BY_ALIGNMENT(.rodata.*) SORT_BY_ALIGNMENT(.constdata) SORT_BY_ALIGNMENT(.constdata.*))
 *fill*         0x6000caf4        0x4 ff
 .rodata.a1.5286
                0x6000caf8       0x88 c:/nxp/mcuxpressoide_11.0.1_2563/ide/plugins/com.nxp.mcuxpresso.tools.win32_11.0.1.201907311258/tools/bin/../lib/gcc/arm-none-eabi/8.2.1/../../../../arm-none-eabi/lib/thumb/v7e-m+fp/hard\libcr_c.a(powf.o)
 .rodata.USB_HostAttachDevice.str1.4
                0x6000cb80       0x16 ./usb/host/usb_host_devices.o
 *fill*         0x6000cb96        0x2 ff
 .rodata.s_EnumEntries
                0x6000cb98       0x38 ./usb/host/usb_host_devices.o
 .rodata.s_SlotMaxBandwidth
                0x6000cbd0        0x8 ./usb/host/usb_host_ehci.o
 .rodata.s_SlotMaxBandwidthHs
                0x6000cbd8        0x8 ./usb/host/usb_host_ehci.o
 .rodata.s_EhciInterface
                0x6000cbe0       0x1c ./usb/host/usb_host_hci.o
 .rodata.USB_HostApplicationInit.str1.4
                0x6000cbfc       0x29 ./source/speakEZ.o
 *fill*         0x6000cc25        0x3 ff
 .rodata.USB_HostEvent.str1.4
                0x6000cc28       0x3f ./source/speakEZ.o
 *fill*         0x6000cc67        0x1 ff
 .rodata.bandpassBiquadF0
                0x6000cc68       0x48 ./source/speakEZ.o
                0x6000cc68                bandpassBiquadF0
 .rodata.demoChords
                0x6000ccb0       0xe0 ./source/speakEZ.o
                0x6000ccb0                demoChords
 .rodata.main.str1.4
                0x6000cd90       0x8a ./source/speakEZ.o
 *fill*         0x6000ce1a        0x2 ff
 .rodata.writeToWM8960.str1.4
                0x6000ce1c       0xf2 ./source/speakEZ.o
 *fill*         0x6000cf0e        0x2 ff
 .rodata        0x6000cf10        0x3 ./source/usbmidi.o
 *fill*         0x6000cf13        0x1 ff
 .rodata.USB_HostMidiEvent.str1.4
                0x6000cf14      0x1c4 ./source/usbmidi.o
 .rodata.USB_HostMidiTask.str1.4
                0x6000d0d8      0x10b ./source/usbmidi.o
 *fill*         0x6000d1e3        0x1 ff
 .rodata.__func__.9762
                0x6000d1e4       0x14 ./source/usbmidi.o
 .rodata.midiControlCallback.str1.4
                0x6000d1f8       0x82 ./source/usbmidi.o
 *fill*         0x6000d27a        0x2 ff
 .rodata.midiInterruptRecvCallback.str1.4
                0x6000d27c       0x28 ./source/usbmidi.o
                                 0x26 (size before relaxing)
 .rodata.s_gpioClock
                0x6000d2a4        0xc ./drivers/fsl_gpio.o
 .rodata.s_LpuartAdapterBase
                0x6000d2b0       0x14 ./component/uart/lpuart_adapter.o
 .rodata.enetPllConfig_BOARD_BootClockRUN
                0x6000d2c4        0x5 ./board/clock_config.o
                0x6000d2c4                enetPllConfig_BOARD_BootClockRUN
 *fill*         0x6000d2c9        0x3 ff
 .rodata.sysPllConfig_BOARD_BootClockRUN
                0x6000d2cc       0x14 ./board/clock_config.o
                0x6000d2cc                sysPllConfig_BOARD_BootClockRUN
 .rodata.I2C_masterConfig
                0x6000d2e0       0x1c ./board/peripherals.o
                0x6000d2e0                I2C_masterConfig
 .rodata.LPUART_1_config
                0x6000d2fc       0x14 ./board/peripherals.o
                0x6000d2fc                LPUART_1_config
 .rodata.PIT_1_config
                0x6000d310        0x1 ./board/peripherals.o
                0x6000d310                PIT_1_config
 *fill*         0x6000d311        0x3 ff
 .rodata.sinTable_f32
                0x6000d314      0x804 F:\Dropbox\Hardware Development\MCUXpresso\11.0.1\workspace\speakEZ\libs\libarm_cortexM7lfsp_math.a(arm_common_tables.o)
                0x6000d314                sinTable_f32
 .rodata.__num_Ciob_streams
                0x6000db18        0x4 c:/nxp/mcuxpressoide_11.0.1_2563/ide/plugins/com.nxp.mcuxpresso.tools.win32_11.0.1.201907311258/tools/bin/../lib/gcc/arm-none-eabi/8.2.1/../../../../arm-none-eabi/lib/thumb/v7e-m+fp/hard\libcr_semihost_nf.a(__ciob.o)
                0x6000db18                __num_Ciob_streams
 .rodata._Csys_alloc.str1.1
                0x6000db1c       0x18 c:/nxp/mcuxpressoide_11.0.1_2563/ide/plugins/com.nxp.mcuxpresso.tools.win32_11.0.1.201907311258/tools/bin/../lib/gcc/arm-none-eabi/8.2.1/../../../../arm-none-eabi/lib/thumb/v7e-m+fp/hard\libcr_c.a(alloc.o)
 .rodata._initio.str1.1
                0x6000db34        0x4 c:/nxp/mcuxpressoide_11.0.1_2563/ide/plugins/com.nxp.mcuxpresso.tools.win32_11.0.1.201907311258/tools/bin/../lib/gcc/arm-none-eabi/8.2.1/../../../../arm-none-eabi/lib/thumb/v7e-m+fp/hard\libcr_c.a(initio.o)
 .rodata.__vfprintf.str1.1
                0x6000db38       0x37 c:/nxp/mcuxpressoide_11.0.1_2563/ide/plugins/com.nxp.mcuxpresso.tools.win32_11.0.1.201907311258/tools/bin/../lib/gcc/arm-none-eabi/8.2.1/../../../../arm-none-eabi/lib/thumb/v7e-m+fp/hard\libcr_c.a(printf.o)
                                 0x38 (size before relaxing)
                0x6000db70                . = ALIGN (0x4)
 *fill*         0x6000db6f        0x1 ff

.glue_7         0x6000db70        0x0
 .glue_7        0x6000db70        0x0 linker stubs

.glue_7t        0x6000db70        0x0
 .glue_7t       0x6000db70        0x0 linker stubs

.vfp11_veneer   0x6000db70        0x0
 .vfp11_veneer  0x6000db70        0x0 linker stubs

.v4_bx          0x6000db70        0x0
 .v4_bx         0x6000db70        0x0 linker stubs

.iplt           0x6000db70        0x0
 .iplt          0x6000db70        0x0 ./xip/evkmimxrt1010_flexspi_nor_config.o

.rel.dyn        0x6000db70        0x0
 .rel.iplt      0x6000db70        0x0 ./xip/evkmimxrt1010_flexspi_nor_config.o

.ARM.extab
 *(SORT_BY_ALIGNMENT(.ARM.extab*) SORT_BY_ALIGNMENT(.gnu.linkonce.armextab.*))
                0x6000db70                __exidx_start = .

.ARM.exidx
 *(SORT_BY_ALIGNMENT(.ARM.exidx*) SORT_BY_ALIGNMENT(.gnu.linkonce.armexidx.*))
                0x6000db70                __exidx_end = .
                0x6000db70                _etext = .

.data_RAM2      0x00000000        0x0 load address 0x6000db70
 FILL mask 0xff
                [!provide]                PROVIDE (__start_data_RAM2 = .)
 *(SORT_BY_ALIGNMENT(.ramfunc.$RAM2))
 *(SORT_BY_ALIGNMENT(.ramfunc.$SRAM_ITC))
 *(SORT_BY_ALIGNMENT(.data.$RAM2))
 *(SORT_BY_ALIGNMENT(.data.$SRAM_ITC))
 *(SORT_BY_ALIGNMENT(.data.$RAM2.*))
 *(SORT_BY_ALIGNMENT(.data.$SRAM_ITC.*))
                0x00000000                . = ALIGN (0x4)
                [!provide]                PROVIDE (__end_data_RAM2 = .)

.data_RAM3      0x20200000        0x0 load address 0x6000db70
 FILL mask 0xff
                [!provide]                PROVIDE (__start_data_RAM3 = .)
 *(SORT_BY_ALIGNMENT(.ramfunc.$RAM3))
 *(SORT_BY_ALIGNMENT(.ramfunc.$SRAM_OC))
 *(SORT_BY_ALIGNMENT(.data.$RAM3))
 *(SORT_BY_ALIGNMENT(.data.$SRAM_OC))
 *(SORT_BY_ALIGNMENT(.data.$RAM3.*))
 *(SORT_BY_ALIGNMENT(.data.$SRAM_OC.*))
                0x20200000                . = ALIGN (0x4)
                [!provide]                PROVIDE (__end_data_RAM3 = .)

.data_RAM4      0x20208000        0x0 load address 0x6000db70
 FILL mask 0xff
                [!provide]                PROVIDE (__start_data_RAM4 = .)
 *(SORT_BY_ALIGNMENT(.ramfunc.$RAM4))
 *(SORT_BY_ALIGNMENT(.ramfunc.$NCACHE_REGION))
 *(SORT_BY_ALIGNMENT(.data.$RAM4))
 *(SORT_BY_ALIGNMENT(.data.$NCACHE_REGION))
 *(SORT_BY_ALIGNMENT(.data.$RAM4.*))
 *(SORT_BY_ALIGNMENT(.data.$NCACHE_REGION.*))
                0x20208000                . = ALIGN (0x4)
                [!provide]                PROVIDE (__end_data_RAM4 = .)

.uninit_RESERVED
                0x20000000        0x0
                0x20000000                . = ALIGN (0x4)
 *(SORT_BY_ALIGNMENT(.bss.$RESERVED*))
                0x20000000                . = ALIGN (0x4)
                0x20000000                _end_uninit_RESERVED = .

.data           0x20000000       0xd8 load address 0x6000db70
 FILL mask 0xff
                0x20000000                _data = .
 *(SORT_BY_ALIGNMENT(vtable))
 *(SORT_BY_ALIGNMENT(.ramfunc*))
 *(SORT_BY_ALIGNMENT(CodeQuickAccess))
 *(SORT_BY_ALIGNMENT(DataQuickAccess))
 *(SORT_BY_ALIGNMENT(RamFunction))
 *(SORT_BY_ALIGNMENT(.data*))
 .data.analysisBiquadBWs
                0x20000000       0x48 ./source/speakEZ.o
                0x20000000                analysisBiquadBWs
 .data.envelopeFollowerQ
                0x20000048        0x4 ./source/speakEZ.o
                0x20000048                envelopeFollowerQ
 .data.lowpassBiquadQ
                0x2000004c        0x4 ./source/speakEZ.o
                0x2000004c                lowpassBiquadQ
 .data.shapingBiquadBWs
                0x20000050       0x48 ./source/speakEZ.o
                0x20000050                shapingBiquadBWs
 .data.sibilanceBiquadQ
                0x20000098        0x4 ./source/speakEZ.o
                0x20000098                sibilanceBiquadQ
 .data.SystemCoreClock
                0x2000009c        0x4 ./device/system_MIMXRT1011.o
                0x2000009c                SystemCoreClock
 .data.SAI_1_Rx_config
                0x200000a0       0x1c ./board/peripherals.o
                0x200000a0                SAI_1_Rx_config
 .data.SAI_1_Tx_config
                0x200000bc       0x1c ./board/peripherals.o
                0x200000bc                SAI_1_Tx_config
                0x200000d8                . = ALIGN (0x4)
                0x200000d8                _edata = .

.igot.plt       0x200000d8        0x0 load address 0x6000dc48
 .igot.plt      0x200000d8        0x0 ./xip/evkmimxrt1010_flexspi_nor_config.o

.bss_RAM2       0x00000000        0x0
                0x00000000                . = ALIGN (0x4)
                [!provide]                PROVIDE (__start_bss_RAM2 = .)
 *(SORT_BY_ALIGNMENT(.bss.$RAM2))
 *(SORT_BY_ALIGNMENT(.bss.$SRAM_ITC))
 *(SORT_BY_ALIGNMENT(.bss.$RAM2.*))
 *(SORT_BY_ALIGNMENT(.bss.$SRAM_ITC.*))
                0x00000000                . = ALIGN ((. != 0x0)?0x4:0x1)
                [!provide]                PROVIDE (__end_bss_RAM2 = .)

.bss_RAM3       0x20200000        0x0
                0x20200000                . = ALIGN (0x4)
                [!provide]                PROVIDE (__start_bss_RAM3 = .)
 *(SORT_BY_ALIGNMENT(.bss.$RAM3))
 *(SORT_BY_ALIGNMENT(.bss.$SRAM_OC))
 *(SORT_BY_ALIGNMENT(.bss.$RAM3.*))
 *(SORT_BY_ALIGNMENT(.bss.$SRAM_OC.*))
                0x20200000                . = ALIGN ((. != 0x0)?0x4:0x1)
                [!provide]                PROVIDE (__end_bss_RAM3 = .)

.bss_RAM4       0x20208000        0x0
                0x20208000                . = ALIGN (0x4)
                [!provide]                PROVIDE (__start_bss_RAM4 = .)
 *(SORT_BY_ALIGNMENT(.bss.$RAM4))
 *(SORT_BY_ALIGNMENT(.bss.$NCACHE_REGION))
 *(SORT_BY_ALIGNMENT(.bss.$RAM4.*))
 *(SORT_BY_ALIGNMENT(.bss.$NCACHE_REGION.*))
                0x20208000                . = ALIGN ((. != 0x0)?0x4:0x1)
                [!provide]                PROVIDE (__end_bss_RAM4 = .)

.bss            0x20001000     0x3fd0
                0x20001000                . = ALIGN (0x4)
                0x20001000                _bss = .
 *(SORT_BY_ALIGNMENT(.bss*))
 .bss.s_UsbHostEhciFrameList1
                0x20001000     0x1000 ./usb/host/usb_host_ehci.o
 .bss.s_UsbHostEhciData1
                0x20002000      0x5c0 ./usb/host/usb_host_ehci.o
 .bss.outputAudioBuffer
                0x200025c0        0x8 ./source/speakEZ.o
                0x200025c0                outputAudioBuffer
 .bss.g_serialHandle
                0x200025c8        0x4 ./utilities/fsl_debug_console.o
                0x200025c8                g_serialHandle
 .bss.s_debugConsoleState
                0x200025cc       0x1c ./utilities/fsl_debug_console.o
 .bss.interruptStatus.9801
                0x200025e8        0x4 ./usb/host/usb_host_ehci.o
 .bss.usbHostEhciFramListStatus
                0x200025ec        0x1 ./usb/host/usb_host_ehci.o
 *fill*         0x200025ed        0x3 
 .bss.g_UsbHostInstance
                0x200025f0      0x2ec ./usb/host/usb_host_hci.o
                0x200025f0                g_UsbHostInstance
 .bss.s_Setupbuffer
                0x200028dc       0x80 ./usb/host/usb_host_hci.o
 .bss.SAI1_rxAudio
                0x2000295c        0x8 ./source/speakEZ.o
                0x2000295c                SAI1_rxAudio
 .bss.SAI1_txAudio
                0x20002964        0x8 ./source/speakEZ.o
                0x20002964                SAI1_txAudio
 .bss.analysisBiquadAbs
                0x2000296c       0x48 ./source/speakEZ.o
                0x2000296c                analysisBiquadAbs
 .bss.analysisBiquadInputs
                0x200029b4        0x8 ./source/speakEZ.o
                0x200029b4                analysisBiquadInputs
 .bss.analysisBiquadOutputs
                0x200029bc       0xd8 ./source/speakEZ.o
                0x200029bc                analysisBiquadOutputs
 .bss.envelopeFollowerInputs
                0x20002a94       0x90 ./source/speakEZ.o
                0x20002a94                envelopeFollowerInputs
 .bss.envelopeFollowerOutputs
                0x20002b24       0xd8 ./source/speakEZ.o
                0x20002b24                envelopeFollowerOutputs
 .bss.g_activeDemoChord
                0x20002bfc        0x4 ./source/speakEZ.o
                0x20002bfc                g_activeDemoChord
 .bss.g_activeWavetable
                0x20002c00        0x4 ./source/speakEZ.o
                0x20002c00                g_activeWavetable
 .bss.g_demoMidiEventPacket
                0x20002c04        0x4 ./source/speakEZ.o
                0x20002c04                g_demoMidiEventPacket
 .bss.g_demoMidiEventPipeInit
                0x20002c08       0x10 ./source/speakEZ.o
                0x20002c08                g_demoMidiEventPipeInit
 .bss.g_demoMidiInstance
                0x20002c18       0x68 ./source/speakEZ.o
                0x20002c18                g_demoMidiInstance
 .bss.g_demoUSBHostHandle
                0x20002c80        0x4 ./source/speakEZ.o
                0x20002c80                g_demoUSBHostHandle
 .bss.g_sw4Debounce
                0x20002c84        0x4 ./source/speakEZ.o
                0x20002c84                g_sw4Debounce
 .bss.inputAudioBuffer
                0x20002c88        0x8 ./source/speakEZ.o
                0x20002c88                inputAudioBuffer
 .bss.lowpassBiquadInputs
                0x20002c90        0x8 ./source/speakEZ.o
                0x20002c90                lowpassBiquadInputs
 .bss.lowpassBiquadOutputs
                0x20002c98        0x8 ./source/speakEZ.o
                0x20002c98                lowpassBiquadOutputs
 .bss.shapingBiquadInputs
                0x20002ca0        0x8 ./source/speakEZ.o
                0x20002ca0                shapingBiquadInputs
 .bss.shapingBiquadOutputs
                0x20002ca8       0xd8 ./source/speakEZ.o
                0x20002ca8                shapingBiquadOutputs
 .bss.sibilanceBiquadInputs
                0x20002d80        0x8 ./source/speakEZ.o
                0x20002d80                sibilanceBiquadInputs
 .bss.sibilanceBiquadOutputs
                0x20002d88        0x8 ./source/speakEZ.o
                0x20002d88                sibilanceBiquadOutputs
 .bss.wavetableNovel
                0x20002d90      0x800 ./source/speakEZ.o
                0x20002d90                wavetableNovel
 .bss.wavetableSaw
                0x20003590      0x800 ./source/speakEZ.o
                0x20003590                wavetableSaw
 .bss.wavetableSine
                0x20003d90      0x800 ./source/speakEZ.o
                0x20003d90                wavetableSine
 .bss.wavetableTri
                0x20004590      0x800 ./source/speakEZ.o
                0x20004590                wavetableTri
 .bss.m_usb_global
                0x20004d90       0xd0 ./osa/usb_osa_bm.o
 .bss.g_rtcXtalFreq
                0x20004e60        0x4 ./drivers/fsl_clock.o
                0x20004e60                g_rtcXtalFreq
 .bss.g_xtalFreq
                0x20004e64        0x4 ./drivers/fsl_clock.o
                0x20004e64                g_xtalFreq
 .bss.s_EDMAHandle
                0x20004e68       0x40 ./drivers/fsl_edma.o
 .bss.s_lpi2cMasterHandle
                0x20004ea8        0xc ./drivers/fsl_lpi2c.o
 .bss.s_lpi2cMasterIsr
                0x20004eb4        0x4 ./drivers/fsl_lpi2c.o
 .bss.s_lpi2cSlaveHandle
                0x20004eb8        0xc ./drivers/fsl_lpi2c.o
 .bss.s_lpi2cSlaveIsr
                0x20004ec4        0x4 ./drivers/fsl_lpi2c.o
 .bss.s_lpuartHandle
                0x20004ec8       0x14 ./drivers/fsl_lpuart.o
 .bss.s_lpuartIsr
                0x20004edc        0x4 ./drivers/fsl_lpuart.o
 .bss.s_saiHandle
                0x20004ee0       0x20 ./drivers/fsl_sai.o
 .bss.s_saiRxIsr
                0x20004f00        0x4 ./drivers/fsl_sai.o
 .bss.s_saiTxIsr
                0x20004f04        0x4 ./drivers/fsl_sai.o
 .bss.I2C_masterBuffer
                0x20004f08        0x2 ./board/peripherals.o
                0x20004f08                I2C_masterBuffer
 *fill*         0x20004f0a        0x2 
 .bss.errno     0x20004f0c        0x4 c:/nxp/mcuxpressoide_11.0.1_2563/ide/plugins/com.nxp.mcuxpresso.tools.win32_11.0.1.201907311258/tools/bin/../lib/gcc/arm-none-eabi/8.2.1/../../../../arm-none-eabi/lib/thumb/v7e-m+fp/hard\libcr_c.a(errno.o)
                0x20004f0c                errno
 .bss.__end_of_heap
                0x20004f10        0x4 c:/nxp/mcuxpressoide_11.0.1_2563/ide/plugins/com.nxp.mcuxpresso.tools.win32_11.0.1.201907311258/tools/bin/../lib/gcc/arm-none-eabi/8.2.1/../../../../arm-none-eabi/lib/thumb/v7e-m+fp/hard\libcr_c.a(__init_alloc.o)
                0x20004f10                __end_of_heap
 .bss.__heaps   0x20004f14        0x4 c:/nxp/mcuxpressoide_11.0.1_2563/ide/plugins/com.nxp.mcuxpresso.tools.win32_11.0.1.201907311258/tools/bin/../lib/gcc/arm-none-eabi/8.2.1/../../../../arm-none-eabi/lib/thumb/v7e-m+fp/hard\libcr_c.a(__init_alloc.o)
                0x20004f14                __heaps
 .bss.__Ciob    0x20004f18       0xb4 c:/nxp/mcuxpressoide_11.0.1_2563/ide/plugins/com.nxp.mcuxpresso.tools.win32_11.0.1.201907311258/tools/bin/../lib/gcc/arm-none-eabi/8.2.1/../../../../arm-none-eabi/lib/thumb/v7e-m+fp/hard\libcr_semihost_nf.a(__ciob.o)
                0x20004f18                __Ciob
 .bss.SAI_RequestSynthUpdate
                0x20004fcc        0x1 ./source/speakEZ.o
                0x20004fcc                SAI_RequestSynthUpdate
 .bss.g_demoMidiPacketRecvFlag
                0x20004fcd        0x1 ./source/speakEZ.o
                0x20004fcd                g_demoMidiPacketRecvFlag
 .bss.g_sw4Pressed
                0x20004fce        0x1 ./source/speakEZ.o
                0x20004fce                g_sw4Pressed
 *(SORT_BY_ALIGNMENT(COMMON))
                0x20004fd0                . = ALIGN (0x4)
 *fill*         0x20004fcf        0x1 
                0x20004fd0                _ebss = .
                [!provide]                PROVIDE (end = .)

.noinit_RAM2    0x00000000        0x0
                0x00000000                . = ALIGN (0x4)
 *(SORT_BY_ALIGNMENT(.noinit.$RAM2))
 *(SORT_BY_ALIGNMENT(.noinit.$SRAM_ITC))
 *(SORT_BY_ALIGNMENT(.noinit.$RAM2.*))
 *(SORT_BY_ALIGNMENT(.noinit.$SRAM_ITC.*))
                0x00000000                . = ALIGN (0x4)

.noinit_RAM3    0x20200000        0x0
                0x20200000                . = ALIGN (0x4)
 *(SORT_BY_ALIGNMENT(.noinit.$RAM3))
 *(SORT_BY_ALIGNMENT(.noinit.$SRAM_OC))
 *(SORT_BY_ALIGNMENT(.noinit.$RAM3.*))
 *(SORT_BY_ALIGNMENT(.noinit.$SRAM_OC.*))
                0x20200000                . = ALIGN (0x4)

.noinit_RAM4    0x20208000        0x0
                0x20208000                . = ALIGN (0x4)
 *(SORT_BY_ALIGNMENT(.noinit.$RAM4))
 *(SORT_BY_ALIGNMENT(.noinit.$NCACHE_REGION))
 *(SORT_BY_ALIGNMENT(.noinit.$RAM4.*))
 *(SORT_BY_ALIGNMENT(.noinit.$NCACHE_REGION.*))
                0x20208000                . = ALIGN (0x4)

.noinit         0x20004fd0        0x0
                0x20004fd0                . = ALIGN (0x4)
                0x20004fd0                _noinit = .
 *(SORT_BY_ALIGNMENT(.noinit*))
                0x20004fd0                . = ALIGN (0x4)
                0x20004fd0                _end_noinit = .
                0x00000800                _HeapSize = 0x800

.heap           0x20004fd0      0x800
                0x20004fd0                _pvHeapStart = .
                0x200057d0                . = (. + _HeapSize)
 *fill*         0x20004fd0      0x800 
                0x200057d0                . = ALIGN (0x4)
                0x200057d0                _pvHeapLimit = .
                0x00000800                _StackSize = 0x800

.heap2stackfill
                0x200057d0      0x800
                0x20005fd0                . = (. + _StackSize)
 *fill*         0x200057d0      0x800 

.stack          0x20007800        0x0
                0x20007800                _vStackBase = .
                0x20007800                . = ALIGN (0x4)
                0x20008000                _vStackTop = (. + _StackSize)
                0x60002000                _image_start = LOADADDR (.text)
                0x6000dc48                _image_end = (LOADADDR (.data) + SIZEOF (.data))
                0x0000bc48                _image_size = (_image_end - _image_start)
OUTPUT(speakEZ.axf elf32-littlearm)

.debug_info     0x00000000    0x3bbb5
 .debug_info    0x00000000      0x7de ./xip/evkmimxrt1010_flexspi_nor_config.o
 .debug_info    0x000007de      0x5c7 ./xip/fsl_flexspi_nor_boot.o
 .debug_info    0x00000da5      0xb7f ./utilities/fsl_debug_console.o
 .debug_info    0x00001924      0xa46 ./usb/phy/usb_phy.o
 .debug_info    0x0000236a     0x25f8 ./usb/host/class/usb_host_cdc.o
 .debug_info    0x00004962     0x283c ./usb/host/usb_host_devices.o
 .debug_info    0x0000719e     0x42eb ./usb/host/usb_host_ehci.o
 .debug_info    0x0000b489     0x18ce ./usb/host/usb_host_framework.o
 .debug_info    0x0000cd57     0x1c9a ./usb/host/usb_host_hci.o
 .debug_info    0x0000e9f1      0xcaf ./startup/startup_mimxrt1011.o
 .debug_info    0x0000f6a0       0x38 ./source/semihost_hardfault.o
 .debug_info    0x0000f6d8     0x5361 ./source/speakEZ.o
 .debug_info    0x00014a39     0x1fec ./source/usbmidi.o
 .debug_info    0x00016a25     0x254b ./osa/usb_osa_bm.o
 .debug_info    0x00018f70     0x359b ./drivers/fsl_clock.o
 .debug_info    0x0001c50b     0x331a ./drivers/fsl_edma.o
 .debug_info    0x0001f825      0xd5d ./drivers/fsl_gpio.o
 .debug_info    0x00020582     0x4a1a ./drivers/fsl_lpi2c.o
 .debug_info    0x00024f9c     0x2b30 ./drivers/fsl_lpuart.o
 .debug_info    0x00027acc      0x8f4 ./drivers/fsl_pit.o
 .debug_info    0x000283c0     0x4a75 ./drivers/fsl_sai.o
 .debug_info    0x0002ce35      0xcf3 ./device/system_MIMXRT1011.o
 .debug_info    0x0002db28      0xaf1 ./component/uart/lpuart_adapter.o
 .debug_info    0x0002e619      0xf24 ./component/serial_manager/serial_manager.o
 .debug_info    0x0002f53d      0x5db ./component/serial_manager/serial_port_uart.o
 .debug_info    0x0002fb18     0x168f ./board/board.o
 .debug_info    0x000311a7     0x2b4d ./board/clock_config.o
 .debug_info    0x00033cf4     0x26f1 ./board/peripherals.o
 .debug_info    0x000363e5     0x1ca1 ./board/pin_mux.o
 .debug_info    0x00038086     0x12d5 F:\Dropbox\Hardware Development\MCUXpresso\11.0.1\workspace\speakEZ\libs\libarm_cortexM7lfsp_math.a(arm_sin_f32.o)
 .debug_info    0x0003935b     0x12d5 F:\Dropbox\Hardware Development\MCUXpresso\11.0.1\workspace\speakEZ\libs\libarm_cortexM7lfsp_math.a(arm_cos_f32.o)
 .debug_info    0x0003a630     0x1585 F:\Dropbox\Hardware Development\MCUXpresso\11.0.1\workspace\speakEZ\libs\libarm_cortexM7lfsp_math.a(arm_common_tables.o)

.debug_abbrev   0x00000000     0x64a1
 .debug_abbrev  0x00000000      0x149 ./xip/evkmimxrt1010_flexspi_nor_config.o
 .debug_abbrev  0x00000149      0x13c ./xip/fsl_flexspi_nor_boot.o
 .debug_abbrev  0x00000285      0x291 ./utilities/fsl_debug_console.o
 .debug_abbrev  0x00000516      0x23f ./usb/phy/usb_phy.o
 .debug_abbrev  0x00000755      0x3e2 ./usb/host/class/usb_host_cdc.o
 .debug_abbrev  0x00000b37      0x3ed ./usb/host/usb_host_devices.o
 .debug_abbrev  0x00000f24      0x44b ./usb/host/usb_host_ehci.o
 .debug_abbrev  0x0000136f      0x2b3 ./usb/host/usb_host_framework.o
 .debug_abbrev  0x00001622      0x406 ./usb/host/usb_host_hci.o
 .debug_abbrev  0x00001a28      0x197 ./startup/startup_mimxrt1011.o
 .debug_abbrev  0x00001bbf       0x2e ./source/semihost_hardfault.o
 .debug_abbrev  0x00001bed      0x649 ./source/speakEZ.o
 .debug_abbrev  0x00002236      0x450 ./source/usbmidi.o
 .debug_abbrev  0x00002686      0x42d ./osa/usb_osa_bm.o
 .debug_abbrev  0x00002ab3      0x4ba ./drivers/fsl_clock.o
 .debug_abbrev  0x00002f6d      0x529 ./drivers/fsl_edma.o
 .debug_abbrev  0x00003496      0x2e7 ./drivers/fsl_gpio.o
 .debug_abbrev  0x0000377d      0x537 ./drivers/fsl_lpi2c.o
 .debug_abbrev  0x00003cb4      0x4e3 ./drivers/fsl_lpuart.o
 .debug_abbrev  0x00004197      0x2a3 ./drivers/fsl_pit.o
 .debug_abbrev  0x0000443a      0x4ab ./drivers/fsl_sai.o
 .debug_abbrev  0x000048e5      0x1ea ./device/system_MIMXRT1011.o
 .debug_abbrev  0x00004acf      0x24d ./component/uart/lpuart_adapter.o
 .debug_abbrev  0x00004d1c      0x2d9 ./component/serial_manager/serial_manager.o
 .debug_abbrev  0x00004ff5      0x1b2 ./component/serial_manager/serial_port_uart.o
 .debug_abbrev  0x000051a7      0x3c6 ./board/board.o
 .debug_abbrev  0x0000556d      0x2db ./board/clock_config.o
 .debug_abbrev  0x00005848      0x345 ./board/peripherals.o
 .debug_abbrev  0x00005b8d      0x2df ./board/pin_mux.o
 .debug_abbrev  0x00005e6c      0x22c F:\Dropbox\Hardware Development\MCUXpresso\11.0.1\workspace\speakEZ\libs\libarm_cortexM7lfsp_math.a(arm_sin_f32.o)
 .debug_abbrev  0x00006098      0x22c F:\Dropbox\Hardware Development\MCUXpresso\11.0.1\workspace\speakEZ\libs\libarm_cortexM7lfsp_math.a(arm_cos_f32.o)
 .debug_abbrev  0x000062c4      0x1dd F:\Dropbox\Hardware Development\MCUXpresso\11.0.1\workspace\speakEZ\libs\libarm_cortexM7lfsp_math.a(arm_common_tables.o)

.debug_aranges  0x00000000     0x11c8
 .debug_aranges
                0x00000000       0x18 ./xip/evkmimxrt1010_flexspi_nor_config.o
 .debug_aranges
                0x00000018       0x18 ./xip/fsl_flexspi_nor_boot.o
 .debug_aranges
                0x00000030       0x48 ./utilities/fsl_debug_console.o
 .debug_aranges
                0x00000078       0x40 ./usb/phy/usb_phy.o
 .debug_aranges
                0x000000b8       0xc8 ./usb/host/class/usb_host_cdc.o
 .debug_aranges
                0x00000180       0x78 ./usb/host/usb_host_devices.o
 .debug_aranges
                0x000001f8       0x88 ./usb/host/usb_host_ehci.o
 .debug_aranges
                0x00000280       0x60 ./usb/host/usb_host_framework.o
 .debug_aranges
                0x000002e0       0x80 ./usb/host/usb_host_hci.o
 .debug_aranges
                0x00000360      0x2e0 ./startup/startup_mimxrt1011.o
 .debug_aranges
                0x00000640       0x20 ./source/semihost_hardfault.o
 .debug_aranges
                0x00000660      0x118 ./source/speakEZ.o
 .debug_aranges
                0x00000778       0x50 ./source/usbmidi.o
 .debug_aranges
                0x000007c8       0xc0 ./osa/usb_osa_bm.o
 .debug_aranges
                0x00000888       0xf8 ./drivers/fsl_clock.o
 .debug_aranges
                0x00000980      0x198 ./drivers/fsl_edma.o
 .debug_aranges
                0x00000b18       0x30 ./drivers/fsl_gpio.o
 .debug_aranges
                0x00000b48      0x108 ./drivers/fsl_lpi2c.o
 .debug_aranges
                0x00000c50       0xf8 ./drivers/fsl_lpuart.o
 .debug_aranges
                0x00000d48       0x30 ./drivers/fsl_pit.o
 .debug_aranges
                0x00000d78      0x210 ./drivers/fsl_sai.o
 .debug_aranges
                0x00000f88       0x30 ./device/system_MIMXRT1011.o
 .debug_aranges
                0x00000fb8       0x38 ./component/uart/lpuart_adapter.o
 .debug_aranges
                0x00000ff0       0x60 ./component/serial_manager/serial_manager.o
 .debug_aranges
                0x00001050       0x38 ./component/serial_manager/serial_port_uart.o
 .debug_aranges
                0x00001088       0x38 ./board/board.o
 .debug_aranges
                0x000010c0       0x28 ./board/clock_config.o
 .debug_aranges
                0x000010e8       0x50 ./board/peripherals.o
 .debug_aranges
                0x00001138       0x38 ./board/pin_mux.o
 .debug_aranges
                0x00001170       0x20 F:\Dropbox\Hardware Development\MCUXpresso\11.0.1\workspace\speakEZ\libs\libarm_cortexM7lfsp_math.a(arm_sin_f32.o)
 .debug_aranges
                0x00001190       0x20 F:\Dropbox\Hardware Development\MCUXpresso\11.0.1\workspace\speakEZ\libs\libarm_cortexM7lfsp_math.a(arm_cos_f32.o)
 .debug_aranges
                0x000011b0       0x18 F:\Dropbox\Hardware Development\MCUXpresso\11.0.1\workspace\speakEZ\libs\libarm_cortexM7lfsp_math.a(arm_common_tables.o)

.debug_line     0x00000000    0x1ef8e
 .debug_line    0x00000000      0x1df ./xip/evkmimxrt1010_flexspi_nor_config.o
 .debug_line    0x000001df      0x1e2 ./xip/fsl_flexspi_nor_boot.o
 .debug_line    0x000003c1      0x4db ./utilities/fsl_debug_console.o
 .debug_line    0x0000089c      0x5f9 ./usb/phy/usb_phy.o
 .debug_line    0x00000e95     0x1157 ./usb/host/class/usb_host_cdc.o
 .debug_line    0x00001fec     0x150e ./usb/host/usb_host_devices.o
 .debug_line    0x000034fa     0x3640 ./usb/host/usb_host_ehci.o
 .debug_line    0x00006b3a      0xa21 ./usb/host/usb_host_framework.o
 .debug_line    0x0000755b      0xb73 ./usb/host/usb_host_hci.o
 .debug_line    0x000080ce      0xce5 ./startup/startup_mimxrt1011.o
 .debug_line    0x00008db3       0x5b ./source/semihost_hardfault.o
 .debug_line    0x00008e0e     0x2663 ./source/speakEZ.o
 .debug_line    0x0000b471      0x7f0 ./source/usbmidi.o
 .debug_line    0x0000bc61     0x1382 ./osa/usb_osa_bm.o
 .debug_line    0x0000cfe3     0x1f63 ./drivers/fsl_clock.o
 .debug_line    0x0000ef46     0x2b9c ./drivers/fsl_edma.o
 .debug_line    0x00011ae2      0x4d1 ./drivers/fsl_gpio.o
 .debug_line    0x00011fb3     0x37d4 ./drivers/fsl_lpi2c.o
 .debug_line    0x00015787     0x1ad0 ./drivers/fsl_lpuart.o
 .debug_line    0x00017257      0x30a ./drivers/fsl_pit.o
 .debug_line    0x00017561     0x3a6c ./drivers/fsl_sai.o
 .debug_line    0x0001afcd      0x4cc ./device/system_MIMXRT1011.o
 .debug_line    0x0001b499      0x361 ./component/uart/lpuart_adapter.o
 .debug_line    0x0001b7fa      0x742 ./component/serial_manager/serial_manager.o
 .debug_line    0x0001bf3c      0x2d1 ./component/serial_manager/serial_port_uart.o
 .debug_line    0x0001c20d      0x814 ./board/board.o
 .debug_line    0x0001ca21      0xd0f ./board/clock_config.o
 .debug_line    0x0001d730      0x786 ./board/peripherals.o
 .debug_line    0x0001deb6      0x8ea ./board/pin_mux.o
 .debug_line    0x0001e7a0      0x2d1 F:\Dropbox\Hardware Development\MCUXpresso\11.0.1\workspace\speakEZ\libs\libarm_cortexM7lfsp_math.a(arm_sin_f32.o)
 .debug_line    0x0001ea71      0x2da F:\Dropbox\Hardware Development\MCUXpresso\11.0.1\workspace\speakEZ\libs\libarm_cortexM7lfsp_math.a(arm_cos_f32.o)
 .debug_line    0x0001ed4b      0x243 F:\Dropbox\Hardware Development\MCUXpresso\11.0.1\workspace\speakEZ\libs\libarm_cortexM7lfsp_math.a(arm_common_tables.o)

.debug_str      0x00000000     0xea17
 .debug_str     0x00000000      0xf55 ./xip/evkmimxrt1010_flexspi_nor_config.o
                                0xf97 (size before relaxing)
 .debug_str     0x00000f55      0x1d9 ./xip/fsl_flexspi_nor_boot.o
                                0xc10 (size before relaxing)
 .debug_str     0x0000112e      0x703 ./utilities/fsl_debug_console.o
                               0x1178 (size before relaxing)
 .debug_str     0x00001831      0x64d ./usb/phy/usb_phy.o
                                0x977 (size before relaxing)
 .debug_str     0x00001e7e     0x1272 ./usb/host/class/usb_host_cdc.o
                               0x1833 (size before relaxing)
 .debug_str     0x000030f0      0xb88 ./usb/host/usb_host_devices.o
                               0x2069 (size before relaxing)
 .debug_str     0x00003c78     0x1008 ./usb/host/usb_host_ehci.o
                               0x274b (size before relaxing)
 .debug_str     0x00004c80      0x312 ./usb/host/usb_host_framework.o
                               0x1075 (size before relaxing)
 .debug_str     0x00004f92      0x148 ./usb/host/usb_host_hci.o
                               0x1e5f (size before relaxing)
 .debug_str     0x000050da      0x76a ./startup/startup_mimxrt1011.o
                                0x8c4 (size before relaxing)
 .debug_str     0x00005844       0x1f ./source/semihost_hardfault.o
                                0x16e (size before relaxing)
 .debug_str     0x00005863     0x24c1 ./source/speakEZ.o
                               0x3d51 (size before relaxing)
 .debug_str     0x00007d24      0x3f1 ./source/usbmidi.o
                               0x1fed (size before relaxing)
 .debug_str     0x00008115      0x285 ./osa/usb_osa_bm.o
                                0xf0c (size before relaxing)
 .debug_str     0x0000839a      0x9ef ./drivers/fsl_clock.o
                               0x1883 (size before relaxing)
 .debug_str     0x00008d89     0x1364 ./drivers/fsl_edma.o
                               0x1d74 (size before relaxing)
 .debug_str     0x0000a0ed      0x1e4 ./drivers/fsl_gpio.o
                               0x112d (size before relaxing)
 .debug_str     0x0000a2d1      0xfd6 ./drivers/fsl_lpi2c.o
                               0x2b6e (size before relaxing)
 .debug_str     0x0000b2a7      0xbaa ./drivers/fsl_lpuart.o
                               0x256c (size before relaxing)
 .debug_str     0x0000be51       0x78 ./drivers/fsl_pit.o
                                0x830 (size before relaxing)
 .debug_str     0x0000bec9      0xbd3 ./drivers/fsl_sai.o
                               0x27b1 (size before relaxing)
 .debug_str     0x0000ca9c       0xcb ./device/system_MIMXRT1011.o
                                0x74a (size before relaxing)
 .debug_str     0x0000cb67      0x2aa ./component/uart/lpuart_adapter.o
                               0x1232 (size before relaxing)
 .debug_str     0x0000ce11      0x242 ./component/serial_manager/serial_manager.o
                                0x7fb (size before relaxing)
 .debug_str     0x0000d053       0x79 ./component/serial_manager/serial_port_uart.o
                                0x821 (size before relaxing)
 .debug_str     0x0000d0cc      0x441 ./board/board.o
                                0xd65 (size before relaxing)
 .debug_str     0x0000d50d      0x296 ./board/clock_config.o
                               0x1997 (size before relaxing)
 .debug_str     0x0000d7a3      0x17b ./board/peripherals.o
                               0x24a3 (size before relaxing)
 .debug_str     0x0000d91e      0x623 ./board/pin_mux.o
                                0xfbc (size before relaxing)
 .debug_str     0x0000df41      0xa74 F:\Dropbox\Hardware Development\MCUXpresso\11.0.1\workspace\speakEZ\libs\libarm_cortexM7lfsp_math.a(arm_sin_f32.o)
                                0xb73 (size before relaxing)
 .debug_str     0x0000e9b5       0x34 F:\Dropbox\Hardware Development\MCUXpresso\11.0.1\workspace\speakEZ\libs\libarm_cortexM7lfsp_math.a(arm_cos_f32.o)
                                0xb73 (size before relaxing)
 .debug_str     0x0000e9e9       0x2e F:\Dropbox\Hardware Development\MCUXpresso\11.0.1\workspace\speakEZ\libs\libarm_cortexM7lfsp_math.a(arm_common_tables.o)
                                0xb4e (size before relaxing)

.comment        0x00000000       0x75
 .comment       0x00000000       0x75 ./xip/evkmimxrt1010_flexspi_nor_config.o
                                 0x76 (size before relaxing)
 .comment       0x00000075       0x76 ./xip/fsl_flexspi_nor_boot.o
 .comment       0x00000075       0x76 ./utilities/fsl_debug_console.o
 .comment       0x00000075       0x76 ./usb/phy/usb_phy.o
 .comment       0x00000075       0x76 ./usb/host/class/usb_host_cdc.o
 .comment       0x00000075       0x76 ./usb/host/usb_host_devices.o
 .comment       0x00000075       0x76 ./usb/host/usb_host_ehci.o
 .comment       0x00000075       0x76 ./usb/host/usb_host_framework.o
 .comment       0x00000075       0x76 ./usb/host/usb_host_hci.o
 .comment       0x00000075       0x76 ./startup/startup_mimxrt1011.o
 .comment       0x00000075       0x76 ./source/semihost_hardfault.o
 .comment       0x00000075       0x76 ./source/speakEZ.o
 .comment       0x00000075       0x76 ./source/usbmidi.o
 .comment       0x00000075       0x76 ./osa/usb_osa_bm.o
 .comment       0x00000075       0x76 ./drivers/fsl_clock.o
 .comment       0x00000075       0x76 ./drivers/fsl_edma.o
 .comment       0x00000075       0x76 ./drivers/fsl_gpio.o
 .comment       0x00000075       0x76 ./drivers/fsl_lpi2c.o
 .comment       0x00000075       0x76 ./drivers/fsl_lpuart.o
 .comment       0x00000075       0x76 ./drivers/fsl_pit.o
 .comment       0x00000075       0x76 ./drivers/fsl_sai.o
 .comment       0x00000075       0x76 ./device/system_MIMXRT1011.o
 .comment       0x00000075       0x76 ./component/uart/lpuart_adapter.o
 .comment       0x00000075       0x76 ./component/serial_manager/serial_manager.o
 .comment       0x00000075       0x76 ./component/serial_manager/serial_port_uart.o
 .comment       0x00000075       0x76 ./board/board.o
 .comment       0x00000075       0x76 ./board/clock_config.o
 .comment       0x00000075       0x76 ./board/peripherals.o
 .comment       0x00000075       0x76 ./board/pin_mux.o
 .comment       0x00000075       0x76 F:\Dropbox\Hardware Development\MCUXpresso\11.0.1\workspace\speakEZ\libs\libarm_cortexM7lfsp_math.a(arm_sin_f32.o)
 .comment       0x00000075       0x76 F:\Dropbox\Hardware Development\MCUXpresso\11.0.1\workspace\speakEZ\libs\libarm_cortexM7lfsp_math.a(arm_cos_f32.o)
 .comment       0x00000075       0x76 F:\Dropbox\Hardware Development\MCUXpresso\11.0.1\workspace\speakEZ\libs\libarm_cortexM7lfsp_math.a(arm_common_tables.o)
 .comment       0x00000075       0x76 c:/nxp/mcuxpressoide_11.0.1_2563/ide/plugins/com.nxp.mcuxpresso.tools.win32_11.0.1.201907311258/tools/bin/../lib/gcc/arm-none-eabi/8.2.1/../../../../arm-none-eabi/lib/thumb/v7e-m+fp/hard\libcr_semihost_nf.a(_cr__main.o)
 .comment       0x00000075       0x76 c:/nxp/mcuxpressoide_11.0.1_2563/ide/plugins/com.nxp.mcuxpresso.tools.win32_11.0.1.201907311258/tools/bin/../lib/gcc/arm-none-eabi/8.2.1/../../../../arm-none-eabi/lib/thumb/v7e-m+fp/hard\libcr_c.a(fabsf.o)
 .comment       0x00000075       0x76 c:/nxp/mcuxpressoide_11.0.1_2563/ide/plugins/com.nxp.mcuxpresso.tools.win32_11.0.1.201907311258/tools/bin/../lib/gcc/arm-none-eabi/8.2.1/../../../../arm-none-eabi/lib/thumb/v7e-m+fp/hard\libcr_c.a(logf.o)
 .comment       0x00000075       0x76 c:/nxp/mcuxpressoide_11.0.1_2563/ide/plugins/com.nxp.mcuxpresso.tools.win32_11.0.1.201907311258/tools/bin/../lib/gcc/arm-none-eabi/8.2.1/../../../../arm-none-eabi/lib/thumb/v7e-m+fp/hard\libcr_c.a(powf.o)
 .comment       0x00000075       0x76 c:/nxp/mcuxpressoide_11.0.1_2563/ide/plugins/com.nxp.mcuxpresso.tools.win32_11.0.1.201907311258/tools/bin/../lib/gcc/arm-none-eabi/8.2.1/../../../../arm-none-eabi/lib/thumb/v7e-m+fp/hard\libcr_c.a(sinhf.o)
 .comment       0x00000075       0x76 c:/nxp/mcuxpressoide_11.0.1_2563/ide/plugins/com.nxp.mcuxpresso.tools.win32_11.0.1.201907311258/tools/bin/../lib/gcc/arm-none-eabi/8.2.1/../../../../arm-none-eabi/lib/thumb/v7e-m+fp/hard\libcr_c.a(memset.o)
 .comment       0x00000075       0x76 c:/nxp/mcuxpressoide_11.0.1_2563/ide/plugins/com.nxp.mcuxpresso.tools.win32_11.0.1.201907311258/tools/bin/../lib/gcc/arm-none-eabi/8.2.1/../../../../arm-none-eabi/lib/thumb/v7e-m+fp/hard\libcr_c.a(alloc.o)
 .comment       0x00000075       0x76 c:/nxp/mcuxpressoide_11.0.1_2563/ide/plugins/com.nxp.mcuxpresso.tools.win32_11.0.1.201907311258/tools/bin/../lib/gcc/arm-none-eabi/8.2.1/../../../../arm-none-eabi/lib/thumb/v7e-m+fp/hard\libcr_c.a(errno.o)
 .comment       0x00000075       0x76 c:/nxp/mcuxpressoide_11.0.1_2563/ide/plugins/com.nxp.mcuxpresso.tools.win32_11.0.1.201907311258/tools/bin/../lib/gcc/arm-none-eabi/8.2.1/../../../../arm-none-eabi/lib/thumb/v7e-m+fp/hard\libcr_c.a(initio.o)
 .comment       0x00000075       0x76 c:/nxp/mcuxpressoide_11.0.1_2563/ide/plugins/com.nxp.mcuxpresso.tools.win32_11.0.1.201907311258/tools/bin/../lib/gcc/arm-none-eabi/8.2.1/../../../../arm-none-eabi/lib/thumb/v7e-m+fp/hard\libcr_c.a(printf.o)
 .comment       0x00000075       0x76 c:/nxp/mcuxpressoide_11.0.1_2563/ide/plugins/com.nxp.mcuxpresso.tools.win32_11.0.1.201907311258/tools/bin/../lib/gcc/arm-none-eabi/8.2.1/../../../../arm-none-eabi/lib/thumb/v7e-m+fp/hard\libcr_c.a(setvbuf.o)
 .comment       0x00000075       0x76 c:/nxp/mcuxpressoide_11.0.1_2563/ide/plugins/com.nxp.mcuxpresso.tools.win32_11.0.1.201907311258/tools/bin/../lib/gcc/arm-none-eabi/8.2.1/../../../../arm-none-eabi/lib/thumb/v7e-m+fp/hard\libcr_c.a(strlen.o)
 .comment       0x00000075       0x76 c:/nxp/mcuxpressoide_11.0.1_2563/ide/plugins/com.nxp.mcuxpresso.tools.win32_11.0.1.201907311258/tools/bin/../lib/gcc/arm-none-eabi/8.2.1/../../../../arm-none-eabi/lib/thumb/v7e-m+fp/hard\libcr_c.a(expf.o)
 .comment       0x00000075       0x76 c:/nxp/mcuxpressoide_11.0.1_2563/ide/plugins/com.nxp.mcuxpresso.tools.win32_11.0.1.201907311258/tools/bin/../lib/gcc/arm-none-eabi/8.2.1/../../../../arm-none-eabi/lib/thumb/v7e-m+fp/hard\libcr_c.a(frexpf.o)
 .comment       0x00000075       0x76 c:/nxp/mcuxpressoide_11.0.1_2563/ide/plugins/com.nxp.mcuxpresso.tools.win32_11.0.1.201907311258/tools/bin/../lib/gcc/arm-none-eabi/8.2.1/../../../../arm-none-eabi/lib/thumb/v7e-m+fp/hard\libcr_c.a(ldexpf.o)
 .comment       0x00000075       0x76 c:/nxp/mcuxpressoide_11.0.1_2563/ide/plugins/com.nxp.mcuxpresso.tools.win32_11.0.1.201907311258/tools/bin/../lib/gcc/arm-none-eabi/8.2.1/../../../../arm-none-eabi/lib/thumb/v7e-m+fp/hard\libcr_c.a(__init_alloc.o)
 .comment       0x00000075       0x76 c:/nxp/mcuxpressoide_11.0.1_2563/ide/plugins/com.nxp.mcuxpresso.tools.win32_11.0.1.201907311258/tools/bin/../lib/gcc/arm-none-eabi/8.2.1/../../../../arm-none-eabi/lib/thumb/v7e-m+fp/hard\libcr_c.a(_cr_sbrk.o)
 .comment       0x00000075       0x76 c:/nxp/mcuxpressoide_11.0.1_2563/ide/plugins/com.nxp.mcuxpresso.tools.win32_11.0.1.201907311258/tools/bin/../lib/gcc/arm-none-eabi/8.2.1/../../../../arm-none-eabi/lib/thumb/v7e-m+fp/hard\libcr_c.a(_deferredlazyseek.o)
 .comment       0x00000075       0x76 c:/nxp/mcuxpressoide_11.0.1_2563/ide/plugins/com.nxp.mcuxpresso.tools.win32_11.0.1.201907311258/tools/bin/../lib/gcc/arm-none-eabi/8.2.1/../../../../arm-none-eabi/lib/thumb/v7e-m+fp/hard\libcr_c.a(_fdopen.o)
 .comment       0x00000075       0x76 c:/nxp/mcuxpressoide_11.0.1_2563/ide/plugins/com.nxp.mcuxpresso.tools.win32_11.0.1.201907311258/tools/bin/../lib/gcc/arm-none-eabi/8.2.1/../../../../arm-none-eabi/lib/thumb/v7e-m+fp/hard\libcr_c.a(_fflush.o)
 .comment       0x00000075       0x76 c:/nxp/mcuxpressoide_11.0.1_2563/ide/plugins/com.nxp.mcuxpresso.tools.win32_11.0.1.201907311258/tools/bin/../lib/gcc/arm-none-eabi/8.2.1/../../../../arm-none-eabi/lib/thumb/v7e-m+fp/hard\libcr_c.a(_writebuf.o)
 .comment       0x00000075       0x76 c:/nxp/mcuxpressoide_11.0.1_2563/ide/plugins/com.nxp.mcuxpresso.tools.win32_11.0.1.201907311258/tools/bin/../lib/gcc/arm-none-eabi/8.2.1/../../../../arm-none-eabi/lib/thumb/v7e-m+fp/hard\libcr_c.a(fclose.o)
 .comment       0x00000075       0x76 c:/nxp/mcuxpressoide_11.0.1_2563/ide/plugins/com.nxp.mcuxpresso.tools.win32_11.0.1.201907311258/tools/bin/../lib/gcc/arm-none-eabi/8.2.1/../../../../arm-none-eabi/lib/thumb/v7e-m+fp/hard\libcr_c.a(fflush.o)
 .comment       0x00000075       0x76 c:/nxp/mcuxpressoide_11.0.1_2563/ide/plugins/com.nxp.mcuxpresso.tools.win32_11.0.1.201907311258/tools/bin/../lib/gcc/arm-none-eabi/8.2.1/../../../../arm-none-eabi/lib/thumb/v7e-m+fp/hard\libcr_c.a(fseek.o)
 .comment       0x00000075       0x76 c:/nxp/mcuxpressoide_11.0.1_2563/ide/plugins/com.nxp.mcuxpresso.tools.win32_11.0.1.201907311258/tools/bin/../lib/gcc/arm-none-eabi/8.2.1/../../../../arm-none-eabi/lib/thumb/v7e-m+fp/hard\libcr_c.a(ftell.o)
 .comment       0x00000075       0x76 c:/nxp/mcuxpressoide_11.0.1_2563/ide/plugins/com.nxp.mcuxpresso.tools.win32_11.0.1.201907311258/tools/bin/../lib/gcc/arm-none-eabi/8.2.1/../../../../arm-none-eabi/lib/thumb/v7e-m+fp/hard\libcr_c.a(remove.o)
 .comment       0x00000075       0x76 c:/nxp/mcuxpressoide_11.0.1_2563/ide/plugins/com.nxp.mcuxpresso.tools.win32_11.0.1.201907311258/tools/bin/../lib/gcc/arm-none-eabi/8.2.1/../../../../arm-none-eabi/lib/thumb/v7e-m+fp/hard\libcr_c.a(_cr_check_heap.o)
 .comment       0x00000075       0x76 c:/nxp/mcuxpressoide_11.0.1_2563/ide/plugins/com.nxp.mcuxpresso.tools.win32_11.0.1.201907311258/tools/bin/../lib/gcc/arm-none-eabi/8.2.1/../../../../arm-none-eabi/lib/thumb/v7e-m+fp/hard\libcr_c.a(_do_fflush.o)
 .comment       0x00000075       0x76 c:/nxp/mcuxpressoide_11.0.1_2563/ide/plugins/com.nxp.mcuxpresso.tools.win32_11.0.1.201907311258/tools/bin/../lib/gcc/arm-none-eabi/8.2.1/thumb/v7e-m+fp/hard\libcr_eabihelpers.a(double.o)
 .comment       0x00000075       0x76 c:/nxp/mcuxpressoide_11.0.1_2563/ide/plugins/com.nxp.mcuxpresso.tools.win32_11.0.1.201907311258/tools/bin/../lib/gcc/arm-none-eabi/8.2.1/thumb/v7e-m+fp/hard\libcr_eabihelpers.a(float.o)
 .comment       0x00000075       0x76 c:/nxp/mcuxpressoide_11.0.1_2563/ide/plugins/com.nxp.mcuxpresso.tools.win32_11.0.1.201907311258/tools/bin/../lib/gcc/arm-none-eabi/8.2.1/../../../../arm-none-eabi/lib/thumb/v7e-m+fp/hard\libcr_semihost_nf.a(__ciob.o)

.ARM.attributes
                0x00000000       0x37
 .ARM.attributes
                0x00000000       0x39 ./xip/evkmimxrt1010_flexspi_nor_config.o
 .ARM.attributes
                0x00000039       0x39 ./xip/fsl_flexspi_nor_boot.o
 .ARM.attributes
                0x00000072       0x34 ./utilities/fsl_debug_console.o
 .ARM.attributes
                0x000000a6       0x34 ./usb/phy/usb_phy.o
 .ARM.attributes
                0x000000da       0x34 ./usb/host/class/usb_host_cdc.o
 .ARM.attributes
                0x0000010e       0x34 ./usb/host/usb_host_devices.o
 .ARM.attributes
                0x00000142       0x34 ./usb/host/usb_host_ehci.o
 .ARM.attributes
                0x00000176       0x34 ./usb/host/usb_host_framework.o
 .ARM.attributes
                0x000001aa       0x34 ./usb/host/usb_host_hci.o
 .ARM.attributes
                0x000001de       0x34 ./startup/startup_mimxrt1011.o
 .ARM.attributes
                0x00000212       0x34 ./source/semihost_hardfault.o
 .ARM.attributes
                0x00000246       0x34 ./source/speakEZ.o
 .ARM.attributes
                0x0000027a       0x34 ./source/usbmidi.o
 .ARM.attributes
                0x000002ae       0x34 ./osa/usb_osa_bm.o
 .ARM.attributes
                0x000002e2       0x34 ./drivers/fsl_clock.o
 .ARM.attributes
                0x00000316       0x34 ./drivers/fsl_edma.o
 .ARM.attributes
                0x0000034a       0x34 ./drivers/fsl_gpio.o
 .ARM.attributes
                0x0000037e       0x34 ./drivers/fsl_lpi2c.o
 .ARM.attributes
                0x000003b2       0x34 ./drivers/fsl_lpuart.o
 .ARM.attributes
                0x000003e6       0x34 ./drivers/fsl_pit.o
 .ARM.attributes
                0x0000041a       0x34 ./drivers/fsl_sai.o
 .ARM.attributes
                0x0000044e       0x34 ./device/system_MIMXRT1011.o
 .ARM.attributes
                0x00000482       0x34 ./component/uart/lpuart_adapter.o
 .ARM.attributes
                0x000004b6       0x34 ./component/serial_manager/serial_manager.o
 .ARM.attributes
                0x000004ea       0x34 ./component/serial_manager/serial_port_uart.o
 .ARM.attributes
                0x0000051e       0x34 ./board/board.o
 .ARM.attributes
                0x00000552       0x34 ./board/clock_config.o
 .ARM.attributes
                0x00000586       0x34 ./board/peripherals.o
 .ARM.attributes
                0x000005ba       0x34 ./board/pin_mux.o
 .ARM.attributes
                0x000005ee       0x34 F:\Dropbox\Hardware Development\MCUXpresso\11.0.1\workspace\speakEZ\libs\libarm_cortexM7lfsp_math.a(arm_sin_f32.o)
 .ARM.attributes
                0x00000622       0x34 F:\Dropbox\Hardware Development\MCUXpresso\11.0.1\workspace\speakEZ\libs\libarm_cortexM7lfsp_math.a(arm_cos_f32.o)
 .ARM.attributes
                0x00000656       0x39 F:\Dropbox\Hardware Development\MCUXpresso\11.0.1\workspace\speakEZ\libs\libarm_cortexM7lfsp_math.a(arm_common_tables.o)
 .ARM.attributes
                0x0000068f       0x34 c:/nxp/mcuxpressoide_11.0.1_2563/ide/plugins/com.nxp.mcuxpresso.tools.win32_11.0.1.201907311258/tools/bin/../lib/gcc/arm-none-eabi/8.2.1/../../../../arm-none-eabi/lib/thumb/v7e-m+fp/hard\libcr_semihost_nf.a(_cr__main.o)
 .ARM.attributes
                0x000006c3       0x34 c:/nxp/mcuxpressoide_11.0.1_2563/ide/plugins/com.nxp.mcuxpresso.tools.win32_11.0.1.201907311258/tools/bin/../lib/gcc/arm-none-eabi/8.2.1/../../../../arm-none-eabi/lib/thumb/v7e-m+fp/hard\libcr_c.a(fabsf.o)
 .ARM.attributes
                0x000006f7       0x34 c:/nxp/mcuxpressoide_11.0.1_2563/ide/plugins/com.nxp.mcuxpresso.tools.win32_11.0.1.201907311258/tools/bin/../lib/gcc/arm-none-eabi/8.2.1/../../../../arm-none-eabi/lib/thumb/v7e-m+fp/hard\libcr_c.a(logf.o)
 .ARM.attributes
                0x0000072b       0x34 c:/nxp/mcuxpressoide_11.0.1_2563/ide/plugins/com.nxp.mcuxpresso.tools.win32_11.0.1.201907311258/tools/bin/../lib/gcc/arm-none-eabi/8.2.1/../../../../arm-none-eabi/lib/thumb/v7e-m+fp/hard\libcr_c.a(powf.o)
 .ARM.attributes
                0x0000075f       0x34 c:/nxp/mcuxpressoide_11.0.1_2563/ide/plugins/com.nxp.mcuxpresso.tools.win32_11.0.1.201907311258/tools/bin/../lib/gcc/arm-none-eabi/8.2.1/../../../../arm-none-eabi/lib/thumb/v7e-m+fp/hard\libcr_c.a(sinhf.o)
 .ARM.attributes
                0x00000793       0x34 c:/nxp/mcuxpressoide_11.0.1_2563/ide/plugins/com.nxp.mcuxpresso.tools.win32_11.0.1.201907311258/tools/bin/../lib/gcc/arm-none-eabi/8.2.1/../../../../arm-none-eabi/lib/thumb/v7e-m+fp/hard\libcr_c.a(memset.o)
 .ARM.attributes
                0x000007c7       0x34 c:/nxp/mcuxpressoide_11.0.1_2563/ide/plugins/com.nxp.mcuxpresso.tools.win32_11.0.1.201907311258/tools/bin/../lib/gcc/arm-none-eabi/8.2.1/../../../../arm-none-eabi/lib/thumb/v7e-m+fp/hard\libcr_c.a(alloc.o)
 .ARM.attributes
                0x000007fb       0x39 c:/nxp/mcuxpressoide_11.0.1_2563/ide/plugins/com.nxp.mcuxpresso.tools.win32_11.0.1.201907311258/tools/bin/../lib/gcc/arm-none-eabi/8.2.1/../../../../arm-none-eabi/lib/thumb/v7e-m+fp/hard\libcr_c.a(errno.o)
 .ARM.attributes
                0x00000834       0x34 c:/nxp/mcuxpressoide_11.0.1_2563/ide/plugins/com.nxp.mcuxpresso.tools.win32_11.0.1.201907311258/tools/bin/../lib/gcc/arm-none-eabi/8.2.1/../../../../arm-none-eabi/lib/thumb/v7e-m+fp/hard\libcr_c.a(initio.o)
 .ARM.attributes
                0x00000868       0x34 c:/nxp/mcuxpressoide_11.0.1_2563/ide/plugins/com.nxp.mcuxpresso.tools.win32_11.0.1.201907311258/tools/bin/../lib/gcc/arm-none-eabi/8.2.1/../../../../arm-none-eabi/lib/thumb/v7e-m+fp/hard\libcr_c.a(printf.o)
 .ARM.attributes
                0x0000089c       0x34 c:/nxp/mcuxpressoide_11.0.1_2563/ide/plugins/com.nxp.mcuxpresso.tools.win32_11.0.1.201907311258/tools/bin/../lib/gcc/arm-none-eabi/8.2.1/../../../../arm-none-eabi/lib/thumb/v7e-m+fp/hard\libcr_c.a(setvbuf.o)
 .ARM.attributes
                0x000008d0       0x34 c:/nxp/mcuxpressoide_11.0.1_2563/ide/plugins/com.nxp.mcuxpresso.tools.win32_11.0.1.201907311258/tools/bin/../lib/gcc/arm-none-eabi/8.2.1/../../../../arm-none-eabi/lib/thumb/v7e-m+fp/hard\libcr_c.a(strlen.o)
 .ARM.attributes
                0x00000904       0x34 c:/nxp/mcuxpressoide_11.0.1_2563/ide/plugins/com.nxp.mcuxpresso.tools.win32_11.0.1.201907311258/tools/bin/../lib/gcc/arm-none-eabi/8.2.1/../../../../arm-none-eabi/lib/thumb/v7e-m+fp/hard\libcr_c.a(expf.o)
 .ARM.attributes
                0x00000938       0x34 c:/nxp/mcuxpressoide_11.0.1_2563/ide/plugins/com.nxp.mcuxpresso.tools.win32_11.0.1.201907311258/tools/bin/../lib/gcc/arm-none-eabi/8.2.1/../../../../arm-none-eabi/lib/thumb/v7e-m+fp/hard\libcr_c.a(frexpf.o)
 .ARM.attributes
                0x0000096c       0x34 c:/nxp/mcuxpressoide_11.0.1_2563/ide/plugins/com.nxp.mcuxpresso.tools.win32_11.0.1.201907311258/tools/bin/../lib/gcc/arm-none-eabi/8.2.1/../../../../arm-none-eabi/lib/thumb/v7e-m+fp/hard\libcr_c.a(ldexpf.o)
 .ARM.attributes
                0x000009a0       0x34 c:/nxp/mcuxpressoide_11.0.1_2563/ide/plugins/com.nxp.mcuxpresso.tools.win32_11.0.1.201907311258/tools/bin/../lib/gcc/arm-none-eabi/8.2.1/../../../../arm-none-eabi/lib/thumb/v7e-m+fp/hard\libcr_c.a(__init_alloc.o)
 .ARM.attributes
                0x000009d4       0x34 c:/nxp/mcuxpressoide_11.0.1_2563/ide/plugins/com.nxp.mcuxpresso.tools.win32_11.0.1.201907311258/tools/bin/../lib/gcc/arm-none-eabi/8.2.1/../../../../arm-none-eabi/lib/thumb/v7e-m+fp/hard\libcr_c.a(_cr_sbrk.o)
 .ARM.attributes
                0x00000a08       0x34 c:/nxp/mcuxpressoide_11.0.1_2563/ide/plugins/com.nxp.mcuxpresso.tools.win32_11.0.1.201907311258/tools/bin/../lib/gcc/arm-none-eabi/8.2.1/../../../../arm-none-eabi/lib/thumb/v7e-m+fp/hard\libcr_c.a(_deferredlazyseek.o)
 .ARM.attributes
                0x00000a3c       0x34 c:/nxp/mcuxpressoide_11.0.1_2563/ide/plugins/com.nxp.mcuxpresso.tools.win32_11.0.1.201907311258/tools/bin/../lib/gcc/arm-none-eabi/8.2.1/../../../../arm-none-eabi/lib/thumb/v7e-m+fp/hard\libcr_c.a(_fdopen.o)
 .ARM.attributes
                0x00000a70       0x34 c:/nxp/mcuxpressoide_11.0.1_2563/ide/plugins/com.nxp.mcuxpresso.tools.win32_11.0.1.201907311258/tools/bin/../lib/gcc/arm-none-eabi/8.2.1/../../../../arm-none-eabi/lib/thumb/v7e-m+fp/hard\libcr_c.a(_fflush.o)
 .ARM.attributes
                0x00000aa4       0x34 c:/nxp/mcuxpressoide_11.0.1_2563/ide/plugins/com.nxp.mcuxpresso.tools.win32_11.0.1.201907311258/tools/bin/../lib/gcc/arm-none-eabi/8.2.1/../../../../arm-none-eabi/lib/thumb/v7e-m+fp/hard\libcr_c.a(_writebuf.o)
 .ARM.attributes
                0x00000ad8       0x34 c:/nxp/mcuxpressoide_11.0.1_2563/ide/plugins/com.nxp.mcuxpresso.tools.win32_11.0.1.201907311258/tools/bin/../lib/gcc/arm-none-eabi/8.2.1/../../../../arm-none-eabi/lib/thumb/v7e-m+fp/hard\libcr_c.a(fclose.o)
 .ARM.attributes
                0x00000b0c       0x34 c:/nxp/mcuxpressoide_11.0.1_2563/ide/plugins/com.nxp.mcuxpresso.tools.win32_11.0.1.201907311258/tools/bin/../lib/gcc/arm-none-eabi/8.2.1/../../../../arm-none-eabi/lib/thumb/v7e-m+fp/hard\libcr_c.a(fflush.o)
 .ARM.attributes
                0x00000b40       0x34 c:/nxp/mcuxpressoide_11.0.1_2563/ide/plugins/com.nxp.mcuxpresso.tools.win32_11.0.1.201907311258/tools/bin/../lib/gcc/arm-none-eabi/8.2.1/../../../../arm-none-eabi/lib/thumb/v7e-m+fp/hard\libcr_c.a(fseek.o)
 .ARM.attributes
                0x00000b74       0x34 c:/nxp/mcuxpressoide_11.0.1_2563/ide/plugins/com.nxp.mcuxpresso.tools.win32_11.0.1.201907311258/tools/bin/../lib/gcc/arm-none-eabi/8.2.1/../../../../arm-none-eabi/lib/thumb/v7e-m+fp/hard\libcr_c.a(ftell.o)
 .ARM.attributes
                0x00000ba8       0x34 c:/nxp/mcuxpressoide_11.0.1_2563/ide/plugins/com.nxp.mcuxpresso.tools.win32_11.0.1.201907311258/tools/bin/../lib/gcc/arm-none-eabi/8.2.1/../../../../arm-none-eabi/lib/thumb/v7e-m+fp/hard\libcr_c.a(remove.o)
 .ARM.attributes
                0x00000bdc       0x34 c:/nxp/mcuxpressoide_11.0.1_2563/ide/plugins/com.nxp.mcuxpresso.tools.win32_11.0.1.201907311258/tools/bin/../lib/gcc/arm-none-eabi/8.2.1/../../../../arm-none-eabi/lib/thumb/v7e-m+fp/hard\libcr_c.a(_cr_check_heap.o)
 .ARM.attributes
                0x00000c10       0x34 c:/nxp/mcuxpressoide_11.0.1_2563/ide/plugins/com.nxp.mcuxpresso.tools.win32_11.0.1.201907311258/tools/bin/../lib/gcc/arm-none-eabi/8.2.1/../../../../arm-none-eabi/lib/thumb/v7e-m+fp/hard\libcr_c.a(_do_fflush.o)
 .ARM.attributes
                0x00000c44       0x20 c:/nxp/mcuxpressoide_11.0.1_2563/ide/plugins/com.nxp.mcuxpresso.tools.win32_11.0.1.201907311258/tools/bin/../lib/gcc/arm-none-eabi/8.2.1/thumb/v7e-m+fp/hard\libcr_eabihelpers.a(division_64.o)
 .ARM.attributes
                0x00000c64       0x20 c:/nxp/mcuxpressoide_11.0.1_2563/ide/plugins/com.nxp.mcuxpresso.tools.win32_11.0.1.201907311258/tools/bin/../lib/gcc/arm-none-eabi/8.2.1/thumb/v7e-m+fp/hard\libcr_eabihelpers.a(division_idiv0.o)
 .ARM.attributes
                0x00000c84       0x34 c:/nxp/mcuxpressoide_11.0.1_2563/ide/plugins/com.nxp.mcuxpresso.tools.win32_11.0.1.201907311258/tools/bin/../lib/gcc/arm-none-eabi/8.2.1/thumb/v7e-m+fp/hard\libcr_eabihelpers.a(double.o)
 .ARM.attributes
                0x00000cb8       0x34 c:/nxp/mcuxpressoide_11.0.1_2563/ide/plugins/com.nxp.mcuxpresso.tools.win32_11.0.1.201907311258/tools/bin/../lib/gcc/arm-none-eabi/8.2.1/thumb/v7e-m+fp/hard\libcr_eabihelpers.a(float.o)
 .ARM.attributes
                0x00000cec       0x20 c:/nxp/mcuxpressoide_11.0.1_2563/ide/plugins/com.nxp.mcuxpresso.tools.win32_11.0.1.201907311258/tools/bin/../lib/gcc/arm-none-eabi/8.2.1/thumb/v7e-m+fp/hard\libcr_eabihelpers.a(memcpy.o)
 .ARM.attributes
                0x00000d0c       0x39 c:/nxp/mcuxpressoide_11.0.1_2563/ide/plugins/com.nxp.mcuxpresso.tools.win32_11.0.1.201907311258/tools/bin/../lib/gcc/arm-none-eabi/8.2.1/../../../../arm-none-eabi/lib/thumb/v7e-m+fp/hard\libcr_semihost_nf.a(__ciob.o)
 .ARM.attributes
                0x00000d45       0x20 c:/nxp/mcuxpressoide_11.0.1_2563/ide/plugins/com.nxp.mcuxpresso.tools.win32_11.0.1.201907311258/tools/bin/../lib/gcc/arm-none-eabi/8.2.1/../../../../arm-none-eabi/lib/thumb/v7e-m+fp/hard\libcr_semihost_nf.a(__sys_appexit.o)
 .ARM.attributes
                0x00000d65       0x20 c:/nxp/mcuxpressoide_11.0.1_2563/ide/plugins/com.nxp.mcuxpresso.tools.win32_11.0.1.201907311258/tools/bin/../lib/gcc/arm-none-eabi/8.2.1/../../../../arm-none-eabi/lib/thumb/v7e-m+fp/hard\libcr_semihost_nf.a(__sys_close.o)
 .ARM.attributes
                0x00000d85       0x20 c:/nxp/mcuxpressoide_11.0.1_2563/ide/plugins/com.nxp.mcuxpresso.tools.win32_11.0.1.201907311258/tools/bin/../lib/gcc/arm-none-eabi/8.2.1/../../../../arm-none-eabi/lib/thumb/v7e-m+fp/hard\libcr_semihost_nf.a(__sys_flen.o)
 .ARM.attributes
                0x00000da5       0x20 c:/nxp/mcuxpressoide_11.0.1_2563/ide/plugins/com.nxp.mcuxpresso.tools.win32_11.0.1.201907311258/tools/bin/../lib/gcc/arm-none-eabi/8.2.1/../../../../arm-none-eabi/lib/thumb/v7e-m+fp/hard\libcr_semihost_nf.a(__sys_istty.o)
 .ARM.attributes
                0x00000dc5       0x20 c:/nxp/mcuxpressoide_11.0.1_2563/ide/plugins/com.nxp.mcuxpresso.tools.win32_11.0.1.201907311258/tools/bin/../lib/gcc/arm-none-eabi/8.2.1/../../../../arm-none-eabi/lib/thumb/v7e-m+fp/hard\libcr_semihost_nf.a(__sys_remove.o)
 .ARM.attributes
                0x00000de5       0x20 c:/nxp/mcuxpressoide_11.0.1_2563/ide/plugins/com.nxp.mcuxpresso.tools.win32_11.0.1.201907311258/tools/bin/../lib/gcc/arm-none-eabi/8.2.1/../../../../arm-none-eabi/lib/thumb/v7e-m+fp/hard\libcr_semihost_nf.a(__sys_seek.o)
 .ARM.attributes
                0x00000e05       0x20 c:/nxp/mcuxpressoide_11.0.1_2563/ide/plugins/com.nxp.mcuxpresso.tools.win32_11.0.1.201907311258/tools/bin/../lib/gcc/arm-none-eabi/8.2.1/../../../../arm-none-eabi/lib/thumb/v7e-m+fp/hard\libcr_semihost_nf.a(__sys_tmpnam.o)
 .ARM.attributes
                0x00000e25       0x20 c:/nxp/mcuxpressoide_11.0.1_2563/ide/plugins/com.nxp.mcuxpresso.tools.win32_11.0.1.201907311258/tools/bin/../lib/gcc/arm-none-eabi/8.2.1/../../../../arm-none-eabi/lib/thumb/v7e-m+fp/hard\libcr_semihost_nf.a(__sys_write.o)

.debug_loc      0x00000000    0x2cc9c
 .debug_loc     0x00000000      0x37e ./utilities/fsl_debug_console.o
 .debug_loc     0x0000037e      0x588 ./usb/phy/usb_phy.o
 .debug_loc     0x00000906     0x284b ./usb/host/class/usb_host_cdc.o
 .debug_loc     0x00003151     0x2227 ./usb/host/usb_host_devices.o
 .debug_loc     0x00005378     0x5e12 ./usb/host/usb_host_ehci.o
 .debug_loc     0x0000b18a     0x1323 ./usb/host/usb_host_framework.o
 .debug_loc     0x0000c4ad     0x145f ./usb/host/usb_host_hci.o
 .debug_loc     0x0000d90c      0x716 ./startup/startup_mimxrt1011.o
 .debug_loc     0x0000e022     0x3ac4 ./source/speakEZ.o
 .debug_loc     0x00011ae6      0x934 ./source/usbmidi.o
 .debug_loc     0x0001241a     0x1e8d ./osa/usb_osa_bm.o
 .debug_loc     0x000142a7     0x2bbd ./drivers/fsl_clock.o
 .debug_loc     0x00016e64     0x329a ./drivers/fsl_edma.o
 .debug_loc     0x0001a0fe      0x82c ./drivers/fsl_gpio.o
 .debug_loc     0x0001a92a     0x69d2 ./drivers/fsl_lpi2c.o
 .debug_loc     0x000212fc     0x2127 ./drivers/fsl_lpuart.o
 .debug_loc     0x00023423      0x1d1 ./drivers/fsl_pit.o
 .debug_loc     0x000235f4     0x49a3 ./drivers/fsl_sai.o
 .debug_loc     0x00027f97      0x144 ./device/system_MIMXRT1011.o
 .debug_loc     0x000280db      0x237 ./component/uart/lpuart_adapter.o
 .debug_loc     0x00028312      0xb06 ./component/serial_manager/serial_manager.o
 .debug_loc     0x00028e18      0x220 ./component/serial_manager/serial_port_uart.o
 .debug_loc     0x00029038      0x219 ./board/board.o
 .debug_loc     0x00029251     0x1616 ./board/clock_config.o
 .debug_loc     0x0002a867      0x4ef ./board/peripherals.o
 .debug_loc     0x0002ad56     0x1d52 ./board/pin_mux.o
 .debug_loc     0x0002caa8       0xfa F:\Dropbox\Hardware Development\MCUXpresso\11.0.1\workspace\speakEZ\libs\libarm_cortexM7lfsp_math.a(arm_sin_f32.o)
 .debug_loc     0x0002cba2       0xfa F:\Dropbox\Hardware Development\MCUXpresso\11.0.1\workspace\speakEZ\libs\libarm_cortexM7lfsp_math.a(arm_cos_f32.o)

.debug_ranges   0x00000000     0x7310
 .debug_ranges  0x00000000       0x80 ./utilities/fsl_debug_console.o
 .debug_ranges  0x00000080       0xb8 ./usb/phy/usb_phy.o
 .debug_ranges  0x00000138      0x1a0 ./usb/host/class/usb_host_cdc.o
 .debug_ranges  0x000002d8      0x1b8 ./usb/host/usb_host_devices.o
 .debug_ranges  0x00000490      0x688 ./usb/host/usb_host_ehci.o
 .debug_ranges  0x00000b18      0x2b8 ./usb/host/usb_host_framework.o
 .debug_ranges  0x00000dd0       0xf8 ./usb/host/usb_host_hci.o
 .debug_ranges  0x00000ec8      0x310 ./startup/startup_mimxrt1011.o
 .debug_ranges  0x000011d8       0x10 ./source/semihost_hardfault.o
 .debug_ranges  0x000011e8      0xc48 ./source/speakEZ.o
 .debug_ranges  0x00001e30       0xc8 ./source/usbmidi.o
 .debug_ranges  0x00001ef8      0x680 ./osa/usb_osa_bm.o
 .debug_ranges  0x00002578      0xc70 ./drivers/fsl_clock.o
 .debug_ranges  0x000031e8      0xa98 ./drivers/fsl_edma.o
 .debug_ranges  0x00003c80      0x128 ./drivers/fsl_gpio.o
 .debug_ranges  0x00003da8     0x16b8 ./drivers/fsl_lpi2c.o
 .debug_ranges  0x00005460      0x428 ./drivers/fsl_lpuart.o
 .debug_ranges  0x00005888       0xa0 ./drivers/fsl_pit.o
 .debug_ranges  0x00005928      0x908 ./drivers/fsl_sai.o
 .debug_ranges  0x00006230       0x20 ./device/system_MIMXRT1011.o
 .debug_ranges  0x00006250       0x28 ./component/uart/lpuart_adapter.o
 .debug_ranges  0x00006278      0x1b0 ./component/serial_manager/serial_manager.o
 .debug_ranges  0x00006428       0x28 ./component/serial_manager/serial_port_uart.o
 .debug_ranges  0x00006450      0x108 ./board/board.o
 .debug_ranges  0x00006558      0x4b0 ./board/clock_config.o
 .debug_ranges  0x00006a08      0x410 ./board/peripherals.o
 .debug_ranges  0x00006e18      0x4d8 ./board/pin_mux.o
 .debug_ranges  0x000072f0       0x10 F:\Dropbox\Hardware Development\MCUXpresso\11.0.1\workspace\speakEZ\libs\libarm_cortexM7lfsp_math.a(arm_sin_f32.o)
 .debug_ranges  0x00007300       0x10 F:\Dropbox\Hardware Development\MCUXpresso\11.0.1\workspace\speakEZ\libs\libarm_cortexM7lfsp_math.a(arm_cos_f32.o)

.debug_frame    0x00000000     0x3a90
 .debug_frame   0x00000000       0xd4 ./utilities/fsl_debug_console.o
 .debug_frame   0x000000d4       0xe8 ./usb/phy/usb_phy.o
 .debug_frame   0x000001bc      0x3fc ./usb/host/class/usb_host_cdc.o
 .debug_frame   0x000005b8      0x210 ./usb/host/usb_host_devices.o
 .debug_frame   0x000007c8      0x2a4 ./usb/host/usb_host_ehci.o
 .debug_frame   0x00000a6c      0x130 ./usb/host/usb_host_framework.o
 .debug_frame   0x00000b9c      0x1b0 ./usb/host/usb_host_hci.o
 .debug_frame   0x00000d4c      0x874 ./startup/startup_mimxrt1011.o
 .debug_frame   0x000015c0       0x20 ./source/semihost_hardfault.o
 .debug_frame   0x000015e0      0x428 ./source/speakEZ.o
 .debug_frame   0x00001a08      0x150 ./source/usbmidi.o
 .debug_frame   0x00001b58      0x254 ./osa/usb_osa_bm.o
 .debug_frame   0x00001dac      0x288 ./drivers/fsl_clock.o
 .debug_frame   0x00002034      0x600 ./drivers/fsl_edma.o
 .debug_frame   0x00002634       0x90 ./drivers/fsl_gpio.o
 .debug_frame   0x000026c4      0x46c ./drivers/fsl_lpi2c.o
 .debug_frame   0x00002b30      0x304 ./drivers/fsl_lpuart.o
 .debug_frame   0x00002e34       0x5c ./drivers/fsl_pit.o
 .debug_frame   0x00002e90      0x750 ./drivers/fsl_sai.o
 .debug_frame   0x000035e0       0x5c ./device/system_MIMXRT1011.o
 .debug_frame   0x0000363c       0x80 ./component/uart/lpuart_adapter.o
 .debug_frame   0x000036bc      0x100 ./component/serial_manager/serial_manager.o
 .debug_frame   0x000037bc       0x68 ./component/serial_manager/serial_port_uart.o
 .debug_frame   0x00003824       0x7c ./board/board.o
 .debug_frame   0x000038a0       0x48 ./board/clock_config.o
 .debug_frame   0x000038e8       0xd4 ./board/peripherals.o
 .debug_frame   0x000039bc       0x94 ./board/pin_mux.o
 .debug_frame   0x00003a50       0x20 F:\Dropbox\Hardware Development\MCUXpresso\11.0.1\workspace\speakEZ\libs\libarm_cortexM7lfsp_math.a(arm_sin_f32.o)
 .debug_frame   0x00003a70       0x20 F:\Dropbox\Hardware Development\MCUXpresso\11.0.1\workspace\speakEZ\libs\libarm_cortexM7lfsp_math.a(arm_cos_f32.o)

Cross Reference Table

Symbol                                            File
ADC1_DriverIRQHandler                             ./startup/startup_mimxrt1011.o
ADC1_IRQHandler                                   ./startup/startup_mimxrt1011.o
ADC_ETC_ERROR_IRQ_DriverIRQHandler                ./startup/startup_mimxrt1011.o
ADC_ETC_ERROR_IRQ_IRQHandler                      ./startup/startup_mimxrt1011.o
ADC_ETC_IRQ0_DriverIRQHandler                     ./startup/startup_mimxrt1011.o
ADC_ETC_IRQ0_IRQHandler                           ./startup/startup_mimxrt1011.o
ADC_ETC_IRQ1_DriverIRQHandler                     ./startup/startup_mimxrt1011.o
ADC_ETC_IRQ1_IRQHandler                           ./startup/startup_mimxrt1011.o
ADC_ETC_IRQ2_DriverIRQHandler                     ./startup/startup_mimxrt1011.o
ADC_ETC_IRQ2_IRQHandler                           ./startup/startup_mimxrt1011.o
ADC_ETC_IRQ3_DriverIRQHandler                     ./startup/startup_mimxrt1011.o
ADC_ETC_IRQ3_IRQHandler                           ./startup/startup_mimxrt1011.o
BOARD_BootClockRUN                                ./board/clock_config.o
BOARD_ConfigMPU                                   ./board/board.o
BOARD_DebugConsoleSrcFreq                         ./board/board.o
BOARD_InitBootClocks                              ./board/clock_config.o
                                                  ./source/speakEZ.o
BOARD_InitBootPeripherals                         ./board/peripherals.o
                                                  ./source/speakEZ.o
BOARD_InitBootPins                                ./board/pin_mux.o
                                                  ./source/speakEZ.o
BOARD_InitDEBUG_UARTPins                          ./board/pin_mux.o
BOARD_InitDebugConsole                            ./board/board.o
                                                  ./source/speakEZ.o
BOARD_InitPeripherals                             ./board/peripherals.o
BOARD_InitPins                                    ./board/pin_mux.o
BOARD_InitQSPIPins                                ./board/pin_mux.o
CCM_1_DriverIRQHandler                            ./startup/startup_mimxrt1011.o
CCM_1_IRQHandler                                  ./startup/startup_mimxrt1011.o
CCM_2_DriverIRQHandler                            ./startup/startup_mimxrt1011.o
CCM_2_IRQHandler                                  ./startup/startup_mimxrt1011.o
CLOCK_DeinitAudioPll                              ./drivers/fsl_clock.o
                                                  ./board/clock_config.o
CLOCK_DeinitEnetPll                               ./drivers/fsl_clock.o
CLOCK_DeinitExternalClk                           ./drivers/fsl_clock.o
CLOCK_DeinitRcOsc24M                              ./drivers/fsl_clock.o
CLOCK_DeinitSysPfd                                ./drivers/fsl_clock.o
CLOCK_DeinitSysPll                                ./drivers/fsl_clock.o
CLOCK_DeinitUsb1Pfd                               ./drivers/fsl_clock.o
CLOCK_DeinitUsb1Pll                               ./drivers/fsl_clock.o
CLOCK_DisableUsbhs0PhyPllClock                    ./drivers/fsl_clock.o
CLOCK_EnableUsbhs0Clock                           ./drivers/fsl_clock.o
                                                  ./source/usbmidi.o
CLOCK_EnableUsbhs0PhyPllClock                     ./drivers/fsl_clock.o
                                                  ./source/usbmidi.o
CLOCK_GetCoreFreq                                 ./drivers/fsl_clock.o
CLOCK_GetFreq                                     ./drivers/fsl_clock.o
CLOCK_GetIpgFreq                                  ./drivers/fsl_clock.o
CLOCK_GetPerClkFreq                               ./drivers/fsl_clock.o
CLOCK_GetPllFreq                                  ./drivers/fsl_clock.o
                                                  ./board/board.o
CLOCK_GetSysPfdFreq                               ./drivers/fsl_clock.o
CLOCK_GetUsb1PfdFreq                              ./drivers/fsl_clock.o
CLOCK_InitAudioPll                                ./drivers/fsl_clock.o
CLOCK_InitEnetPll                                 ./drivers/fsl_clock.o
                                                  ./board/clock_config.o
CLOCK_InitExternalClk                             ./drivers/fsl_clock.o
                                                  ./board/clock_config.o
CLOCK_InitRcOsc24M                                ./drivers/fsl_clock.o
                                                  ./board/clock_config.o
CLOCK_InitSysPfd                                  ./drivers/fsl_clock.o
                                                  ./board/clock_config.o
CLOCK_InitSysPll                                  ./drivers/fsl_clock.o
                                                  ./board/clock_config.o
CLOCK_InitUsb1Pfd                                 ./drivers/fsl_clock.o
CLOCK_InitUsb1Pll                                 ./drivers/fsl_clock.o
CLOCK_SwitchOsc                                   ./drivers/fsl_clock.o
                                                  ./board/clock_config.o
CODEC_Deinit                                      ./codec/fsl_codec_common.o
CODEC_I2C_Deinit                                  ./codec/fsl_codec_i2c.o
                                                  ./codec/fsl_wm8960.o
CODEC_I2C_Init                                    ./codec/fsl_codec_i2c.o
                                                  ./codec/fsl_wm8960.o
CODEC_I2C_Receive                                 ./codec/fsl_codec_i2c.o
CODEC_I2C_Send                                    ./codec/fsl_codec_i2c.o
                                                  ./codec/fsl_wm8960.o
CODEC_Init                                        ./codec/fsl_codec_common.o
CODEC_ModuleControl                               ./codec/fsl_codec_common.o
CODEC_SetFormat                                   ./codec/fsl_codec_common.o
CODEC_SetMute                                     ./codec/fsl_codec_common.o
CODEC_SetPlay                                     ./codec/fsl_codec_common.o
CODEC_SetPower                                    ./codec/fsl_codec_common.o
CODEC_SetRecord                                   ./codec/fsl_codec_common.o
CODEC_SetRecordChannel                            ./codec/fsl_codec_common.o
CODEC_SetVolume                                   ./codec/fsl_codec_common.o
CORE_DriverIRQHandler                             ./startup/startup_mimxrt1011.o
CORE_IRQHandler                                   ./startup/startup_mimxrt1011.o
CSU_DriverIRQHandler                              ./startup/startup_mimxrt1011.o
CSU_IRQHandler                                    ./startup/startup_mimxrt1011.o
CTI0_ERROR_DriverIRQHandler                       ./startup/startup_mimxrt1011.o
CTI0_ERROR_IRQHandler                             ./startup/startup_mimxrt1011.o
CTI1_ERROR_DriverIRQHandler                       ./startup/startup_mimxrt1011.o
CTI1_ERROR_IRQHandler                             ./startup/startup_mimxrt1011.o
DCDC_DriverIRQHandler                             ./startup/startup_mimxrt1011.o
DCDC_IRQHandler                                   ./startup/startup_mimxrt1011.o
DCP_DriverIRQHandler                              ./startup/startup_mimxrt1011.o
DCP_IRQHandler                                    ./startup/startup_mimxrt1011.o
DCP_VMI_DriverIRQHandler                          ./startup/startup_mimxrt1011.o
DCP_VMI_IRQHandler                                ./startup/startup_mimxrt1011.o
DMA0_DriverIRQHandler                             ./drivers/fsl_edma.o
                                                  ./startup/startup_mimxrt1011.o
DMA0_IRQHandler                                   ./startup/startup_mimxrt1011.o
DMA10_DriverIRQHandler                            ./drivers/fsl_edma.o
                                                  ./startup/startup_mimxrt1011.o
DMA10_IRQHandler                                  ./startup/startup_mimxrt1011.o
DMA11_DriverIRQHandler                            ./drivers/fsl_edma.o
                                                  ./startup/startup_mimxrt1011.o
DMA11_IRQHandler                                  ./startup/startup_mimxrt1011.o
DMA12_DriverIRQHandler                            ./drivers/fsl_edma.o
                                                  ./startup/startup_mimxrt1011.o
DMA12_IRQHandler                                  ./startup/startup_mimxrt1011.o
DMA13_DriverIRQHandler                            ./drivers/fsl_edma.o
                                                  ./startup/startup_mimxrt1011.o
DMA13_IRQHandler                                  ./startup/startup_mimxrt1011.o
DMA14_DriverIRQHandler                            ./drivers/fsl_edma.o
                                                  ./startup/startup_mimxrt1011.o
DMA14_IRQHandler                                  ./startup/startup_mimxrt1011.o
DMA15_DriverIRQHandler                            ./drivers/fsl_edma.o
                                                  ./startup/startup_mimxrt1011.o
DMA15_IRQHandler                                  ./startup/startup_mimxrt1011.o
DMA1_DriverIRQHandler                             ./drivers/fsl_edma.o
                                                  ./startup/startup_mimxrt1011.o
DMA1_IRQHandler                                   ./startup/startup_mimxrt1011.o
DMA2_DriverIRQHandler                             ./drivers/fsl_edma.o
                                                  ./startup/startup_mimxrt1011.o
DMA2_IRQHandler                                   ./startup/startup_mimxrt1011.o
DMA3_DriverIRQHandler                             ./drivers/fsl_edma.o
                                                  ./startup/startup_mimxrt1011.o
DMA3_IRQHandler                                   ./startup/startup_mimxrt1011.o
DMA4_DriverIRQHandler                             ./drivers/fsl_edma.o
                                                  ./startup/startup_mimxrt1011.o
DMA4_IRQHandler                                   ./startup/startup_mimxrt1011.o
DMA5_DriverIRQHandler                             ./drivers/fsl_edma.o
                                                  ./startup/startup_mimxrt1011.o
DMA5_IRQHandler                                   ./startup/startup_mimxrt1011.o
DMA6_DriverIRQHandler                             ./drivers/fsl_edma.o
                                                  ./startup/startup_mimxrt1011.o
DMA6_IRQHandler                                   ./startup/startup_mimxrt1011.o
DMA7_DriverIRQHandler                             ./drivers/fsl_edma.o
                                                  ./startup/startup_mimxrt1011.o
DMA7_IRQHandler                                   ./startup/startup_mimxrt1011.o
DMA8_DriverIRQHandler                             ./drivers/fsl_edma.o
                                                  ./startup/startup_mimxrt1011.o
DMA8_IRQHandler                                   ./startup/startup_mimxrt1011.o
DMA9_DriverIRQHandler                             ./drivers/fsl_edma.o
                                                  ./startup/startup_mimxrt1011.o
DMA9_IRQHandler                                   ./startup/startup_mimxrt1011.o
DMAMUX_Deinit                                     ./drivers/fsl_dmamux.o
DMAMUX_Init                                       ./drivers/fsl_dmamux.o
DMA_ERROR_DriverIRQHandler                        ./startup/startup_mimxrt1011.o
DMA_ERROR_IRQHandler                              ./startup/startup_mimxrt1011.o
DbgConsole_Deinit                                 ./utilities/fsl_debug_console.o
DbgConsole_Init                                   ./utilities/fsl_debug_console.o
                                                  ./board/board.o
DbgConsole_ReadCharacter                          ./utilities/fsl_debug_console.o
DbgConsole_ReadLine                               ./utilities/fsl_debug_console.o
DbgConsole_ReadOneCharacter                       ./utilities/fsl_debug_console.o
DbgConsole_SendData                               ./utilities/fsl_debug_console.o
DbgConsole_SendDataReliable                       ./utilities/fsl_debug_console.o
EDMA_AbortTransfer                                ./drivers/fsl_edma.o
                                                  ./drivers/fsl_lpuart_edma.o
                                                  ./drivers/fsl_lpi2c_edma.o
EDMA_ClearChannelStatusFlags                      ./drivers/fsl_edma.o
EDMA_CreateHandle                                 ./drivers/fsl_edma.o
EDMA_Deinit                                       ./drivers/fsl_edma.o
EDMA_DisableChannelInterrupts                     ./drivers/fsl_edma.o
EDMA_EnableChannelInterrupts                      ./drivers/fsl_edma.o
                                                  ./drivers/fsl_lpi2c_edma.o
EDMA_GetChannelStatusFlags                        ./drivers/fsl_edma.o
EDMA_GetDefaultConfig                             ./drivers/fsl_edma.o
EDMA_GetRemainingMajorLoopCount                   ./drivers/fsl_edma.o
                                                  ./drivers/fsl_lpuart_edma.o
                                                  ./drivers/fsl_lpi2c_edma.o
EDMA_HandleIRQ                                    ./drivers/fsl_edma.o
EDMA_Init                                         ./drivers/fsl_edma.o
EDMA_InstallTCD                                   ./drivers/fsl_edma.o
EDMA_InstallTCDMemory                             ./drivers/fsl_edma.o
EDMA_PrepareTransfer                              ./drivers/fsl_edma.o
                                                  ./drivers/fsl_lpuart_edma.o
EDMA_ResetChannel                                 ./drivers/fsl_edma.o
                                                  ./drivers/fsl_lpi2c_edma.o
EDMA_SetBandWidth                                 ./drivers/fsl_edma.o
EDMA_SetCallback                                  ./drivers/fsl_edma.o
                                                  ./drivers/fsl_lpuart_edma.o
                                                  ./drivers/fsl_lpi2c_edma.o
EDMA_SetChannelLink                               ./drivers/fsl_edma.o
EDMA_SetChannelPreemptionConfig                   ./drivers/fsl_edma.o
EDMA_SetMinorOffsetConfig                         ./drivers/fsl_edma.o
EDMA_SetModulo                                    ./drivers/fsl_edma.o
EDMA_SetTransferConfig                            ./drivers/fsl_edma.o
                                                  ./drivers/fsl_lpi2c_edma.o
EDMA_StartTransfer                                ./drivers/fsl_edma.o
                                                  ./drivers/fsl_lpuart_edma.o
                                                  ./drivers/fsl_lpi2c_edma.o
EDMA_StopTransfer                                 ./drivers/fsl_edma.o
EDMA_SubmitTransfer                               ./drivers/fsl_edma.o
                                                  ./drivers/fsl_lpuart_edma.o
EDMA_TcdDisableInterrupts                         ./drivers/fsl_edma.o
EDMA_TcdEnableInterrupts                          ./drivers/fsl_edma.o
                                                  ./drivers/fsl_lpi2c_edma.o
EDMA_TcdReset                                     ./drivers/fsl_edma.o
                                                  ./drivers/fsl_lpi2c_edma.o
EDMA_TcdSetChannelLink                            ./drivers/fsl_edma.o
EDMA_TcdSetMinorOffsetConfig                      ./drivers/fsl_edma.o
EDMA_TcdSetModulo                                 ./drivers/fsl_edma.o
EDMA_TcdSetTransferConfig                         ./drivers/fsl_edma.o
                                                  ./drivers/fsl_lpi2c_edma.o
EWM_DriverIRQHandler                              ./startup/startup_mimxrt1011.o
EWM_IRQHandler                                    ./startup/startup_mimxrt1011.o
FLEXIO1_DriverIRQHandler                          ./startup/startup_mimxrt1011.o
FLEXIO1_IRQHandler                                ./startup/startup_mimxrt1011.o
FLEXRAM_DriverIRQHandler                          ./startup/startup_mimxrt1011.o
FLEXRAM_IRQHandler                                ./startup/startup_mimxrt1011.o
FLEXSPI_DriverIRQHandler                          ./startup/startup_mimxrt1011.o
FLEXSPI_IRQHandler                                ./startup/startup_mimxrt1011.o
GPC_DriverIRQHandler                              ./startup/startup_mimxrt1011.o
GPC_IRQHandler                                    ./startup/startup_mimxrt1011.o
GPIO1_Combined_0_15_DriverIRQHandler              ./startup/startup_mimxrt1011.o
GPIO1_Combined_0_15_IRQHandler                    ./startup/startup_mimxrt1011.o
GPIO1_Combined_16_31_DriverIRQHandler             ./startup/startup_mimxrt1011.o
GPIO1_Combined_16_31_IRQHandler                   ./startup/startup_mimxrt1011.o
GPIO2_Combined_0_15_DriverIRQHandler              ./startup/startup_mimxrt1011.o
GPIO2_Combined_0_15_IRQHandler                    ./startup/startup_mimxrt1011.o
GPIO5_Combined_0_15_DriverIRQHandler              ./startup/startup_mimxrt1011.o
GPIO5_Combined_0_15_IRQHandler                    ./startup/startup_mimxrt1011.o
GPIO_1_init                                       ./board/peripherals.o
GPIO_2_init                                       ./board/peripherals.o
GPIO_PinInit                                      ./drivers/fsl_gpio.o
                                                  ./board/pin_mux.o
GPIO_PinSetInterruptConfig                        ./drivers/fsl_gpio.o
GPIO_PinWrite                                     ./drivers/fsl_gpio.o
GPR_IRQ_DriverIRQHandler                          ./startup/startup_mimxrt1011.o
GPR_IRQ_IRQHandler                                ./startup/startup_mimxrt1011.o
GPT1_DriverIRQHandler                             ./startup/startup_mimxrt1011.o
GPT1_IRQHandler                                   ./startup/startup_mimxrt1011.o
GPT2_DriverIRQHandler                             ./startup/startup_mimxrt1011.o
GPT2_IRQHandler                                   ./startup/startup_mimxrt1011.o
HAL_CODEC_Deinit                                  ./codec/fsl_codec_adapter.o
                                                  ./codec/fsl_codec_common.o
HAL_CODEC_Init                                    ./codec/fsl_codec_adapter.o
                                                  ./codec/fsl_codec_common.o
HAL_CODEC_ModuleControl                           ./codec/fsl_codec_adapter.o
                                                  ./codec/fsl_codec_common.o
HAL_CODEC_SetFormat                               ./codec/fsl_codec_adapter.o
                                                  ./codec/fsl_codec_common.o
HAL_CODEC_SetMute                                 ./codec/fsl_codec_adapter.o
                                                  ./codec/fsl_codec_common.o
HAL_CODEC_SetPlay                                 ./codec/fsl_codec_adapter.o
                                                  ./codec/fsl_codec_common.o
HAL_CODEC_SetPower                                ./codec/fsl_codec_adapter.o
                                                  ./codec/fsl_codec_common.o
HAL_CODEC_SetRecord                               ./codec/fsl_codec_adapter.o
                                                  ./codec/fsl_codec_common.o
HAL_CODEC_SetRecordChannel                        ./codec/fsl_codec_adapter.o
                                                  ./codec/fsl_codec_common.o
HAL_CODEC_SetVolume                               ./codec/fsl_codec_adapter.o
                                                  ./codec/fsl_codec_common.o
HAL_I2cGetStatus                                  ./component/i2c/lpi2c_adapter.o
HAL_I2cMasterDeinit                               ./component/i2c/lpi2c_adapter.o
                                                  ./codec/fsl_codec_i2c.o
HAL_I2cMasterInit                                 ./component/i2c/lpi2c_adapter.o
                                                  ./codec/fsl_codec_i2c.o
HAL_I2cMasterReadBlocking                         ./component/i2c/lpi2c_adapter.o
HAL_I2cMasterTransferAbort                        ./component/i2c/lpi2c_adapter.o
HAL_I2cMasterTransferBlocking                     ./component/i2c/lpi2c_adapter.o
                                                  ./codec/fsl_codec_i2c.o
HAL_I2cMasterTransferGetCount                     ./component/i2c/lpi2c_adapter.o
HAL_I2cMasterTransferInstallCallback              ./component/i2c/lpi2c_adapter.o
HAL_I2cMasterTransferNonBlocking                  ./component/i2c/lpi2c_adapter.o
HAL_I2cMasterWriteBlocking                        ./component/i2c/lpi2c_adapter.o
HAL_I2cSlaveDeinit                                ./component/i2c/lpi2c_adapter.o
HAL_I2cSlaveInit                                  ./component/i2c/lpi2c_adapter.o
HAL_I2cSlaveReadBlocking                          ./component/i2c/lpi2c_adapter.o
HAL_I2cSlaveTransferAbort                         ./component/i2c/lpi2c_adapter.o
HAL_I2cSlaveTransferGetCount                      ./component/i2c/lpi2c_adapter.o
HAL_I2cSlaveTransferInstallCallback               ./component/i2c/lpi2c_adapter.o
HAL_I2cSlaveTransferNonBlocking                   ./component/i2c/lpi2c_adapter.o
HAL_I2cSlaveWriteBlocking                         ./component/i2c/lpi2c_adapter.o
HAL_UartDeinit                                    ./component/uart/lpuart_adapter.o
                                                  ./component/serial_manager/serial_port_uart.o
HAL_UartInit                                      ./component/uart/lpuart_adapter.o
                                                  ./component/serial_manager/serial_port_uart.o
HAL_UartReceiveBlocking                           ./component/uart/lpuart_adapter.o
                                                  ./component/serial_manager/serial_port_uart.o
HAL_UartSendBlocking                              ./component/uart/lpuart_adapter.o
                                                  ./component/serial_manager/serial_port_uart.o
HardFault_Handler                                 ./source/semihost_hardfault.o
                                                  ./startup/startup_mimxrt1011.o
I2C_init                                          ./board/peripherals.o
I2C_masterBuffer                                  ./board/peripherals.o
                                                  ./source/speakEZ.o
I2C_masterConfig                                  ./board/peripherals.o
I2C_masterTransfer                                ./board/peripherals.o
IntDefaultHandler                                 ./startup/startup_mimxrt1011.o
KPP_DriverIRQHandler                              ./startup/startup_mimxrt1011.o
KPP_IRQHandler                                    ./startup/startup_mimxrt1011.o
LPI2C1_DriverIRQHandler                           ./drivers/fsl_lpi2c.o
                                                  ./startup/startup_mimxrt1011.o
LPI2C1_IRQHandler                                 ./startup/startup_mimxrt1011.o
LPI2C2_DriverIRQHandler                           ./drivers/fsl_lpi2c.o
                                                  ./startup/startup_mimxrt1011.o
LPI2C2_IRQHandler                                 ./startup/startup_mimxrt1011.o
LPI2C_CheckForBusyBus                             ./drivers/fsl_lpi2c.o
                                                  ./drivers/fsl_lpi2c_edma.o
LPI2C_GetInstance                                 ./drivers/fsl_lpi2c.o
LPI2C_MasterCheckAndClearError                    ./drivers/fsl_lpi2c.o
                                                  ./drivers/fsl_lpi2c_edma.o
LPI2C_MasterConfigureDataMatch                    ./drivers/fsl_lpi2c.o
LPI2C_MasterCreateEDMAHandle                      ./drivers/fsl_lpi2c_edma.o
LPI2C_MasterDeinit                                ./drivers/fsl_lpi2c.o
                                                  ./component/i2c/lpi2c_adapter.o
LPI2C_MasterGetDefaultConfig                      ./drivers/fsl_lpi2c.o
                                                  ./component/i2c/lpi2c_adapter.o
LPI2C_MasterInit                                  ./drivers/fsl_lpi2c.o
                                                  ./board/peripherals.o
                                                  ./component/i2c/lpi2c_adapter.o
LPI2C_MasterReceive                               ./drivers/fsl_lpi2c.o
LPI2C_MasterSend                                  ./drivers/fsl_lpi2c.o
LPI2C_MasterSetBaudRate                           ./drivers/fsl_lpi2c.o
LPI2C_MasterStart                                 ./drivers/fsl_lpi2c.o
LPI2C_MasterStop                                  ./drivers/fsl_lpi2c.o
LPI2C_MasterTransferAbort                         ./drivers/fsl_lpi2c.o
                                                  ./component/i2c/lpi2c_adapter.o
LPI2C_MasterTransferAbortEDMA                     ./drivers/fsl_lpi2c_edma.o
LPI2C_MasterTransferBlocking                      ./drivers/fsl_lpi2c.o
                                                  ./component/i2c/lpi2c_adapter.o
                                                  ./source/speakEZ.o
LPI2C_MasterTransferCreateHandle                  ./drivers/fsl_lpi2c.o
                                                  ./component/i2c/lpi2c_adapter.o
LPI2C_MasterTransferEDMA                          ./drivers/fsl_lpi2c_edma.o
LPI2C_MasterTransferGetCount                      ./drivers/fsl_lpi2c.o
                                                  ./component/i2c/lpi2c_adapter.o
LPI2C_MasterTransferGetCountEDMA                  ./drivers/fsl_lpi2c_edma.o
LPI2C_MasterTransferHandleIRQ                     ./drivers/fsl_lpi2c.o
LPI2C_MasterTransferNonBlocking                   ./drivers/fsl_lpi2c.o
                                                  ./component/i2c/lpi2c_adapter.o
LPI2C_SlaveDeinit                                 ./drivers/fsl_lpi2c.o
                                                  ./component/i2c/lpi2c_adapter.o
LPI2C_SlaveGetDefaultConfig                       ./drivers/fsl_lpi2c.o
                                                  ./component/i2c/lpi2c_adapter.o
LPI2C_SlaveInit                                   ./drivers/fsl_lpi2c.o
                                                  ./component/i2c/lpi2c_adapter.o
LPI2C_SlaveReceive                                ./drivers/fsl_lpi2c.o
LPI2C_SlaveSend                                   ./drivers/fsl_lpi2c.o
LPI2C_SlaveTransferAbort                          ./drivers/fsl_lpi2c.o
                                                  ./component/i2c/lpi2c_adapter.o
LPI2C_SlaveTransferCreateHandle                   ./drivers/fsl_lpi2c.o
                                                  ./component/i2c/lpi2c_adapter.o
LPI2C_SlaveTransferGetCount                       ./drivers/fsl_lpi2c.o
                                                  ./component/i2c/lpi2c_adapter.o
LPI2C_SlaveTransferHandleIRQ                      ./drivers/fsl_lpi2c.o
LPI2C_SlaveTransferNonBlocking                    ./drivers/fsl_lpi2c.o
                                                  ./component/i2c/lpi2c_adapter.o
LPSPI1_DriverIRQHandler                           ./startup/startup_mimxrt1011.o
LPSPI1_IRQHandler                                 ./startup/startup_mimxrt1011.o
LPSPI2_DriverIRQHandler                           ./startup/startup_mimxrt1011.o
LPSPI2_IRQHandler                                 ./startup/startup_mimxrt1011.o
LPUART1_DriverIRQHandler                          ./drivers/fsl_lpuart.o
                                                  ./startup/startup_mimxrt1011.o
LPUART1_IRQHandler                                ./startup/startup_mimxrt1011.o
LPUART2_DriverIRQHandler                          ./drivers/fsl_lpuart.o
                                                  ./startup/startup_mimxrt1011.o
LPUART2_IRQHandler                                ./startup/startup_mimxrt1011.o
LPUART3_DriverIRQHandler                          ./drivers/fsl_lpuart.o
                                                  ./startup/startup_mimxrt1011.o
LPUART3_IRQHandler                                ./startup/startup_mimxrt1011.o
LPUART4_DriverIRQHandler                          ./drivers/fsl_lpuart.o
                                                  ./startup/startup_mimxrt1011.o
LPUART4_IRQHandler                                ./startup/startup_mimxrt1011.o
LPUART_1_config                                   ./board/peripherals.o
LPUART_1_init                                     ./board/peripherals.o
LPUART_ClearStatusFlags                           ./drivers/fsl_lpuart.o
LPUART_Deinit                                     ./drivers/fsl_lpuart.o
                                                  ./component/uart/lpuart_adapter.o
LPUART_DisableInterrupts                          ./drivers/fsl_lpuart.o
LPUART_EnableInterrupts                           ./drivers/fsl_lpuart.o
LPUART_GetDefaultConfig                           ./drivers/fsl_lpuart.o
                                                  ./component/uart/lpuart_adapter.o
LPUART_GetEnabledInterrupts                       ./drivers/fsl_lpuart.o
LPUART_GetInstance                                ./drivers/fsl_lpuart.o
                                                  ./drivers/fsl_lpuart_edma.o
LPUART_GetStatusFlags                             ./drivers/fsl_lpuart.o
LPUART_Init                                       ./drivers/fsl_lpuart.o
                                                  ./board/peripherals.o
                                                  ./component/uart/lpuart_adapter.o
LPUART_ReadBlocking                               ./drivers/fsl_lpuart.o
                                                  ./component/uart/lpuart_adapter.o
LPUART_ReceiveEDMA                                ./drivers/fsl_lpuart_edma.o
LPUART_SendEDMA                                   ./drivers/fsl_lpuart_edma.o
LPUART_SetBaudRate                                ./drivers/fsl_lpuart.o
LPUART_TransferAbortReceive                       ./drivers/fsl_lpuart.o
LPUART_TransferAbortReceiveEDMA                   ./drivers/fsl_lpuart_edma.o
LPUART_TransferAbortSend                          ./drivers/fsl_lpuart.o
LPUART_TransferAbortSendEDMA                      ./drivers/fsl_lpuart_edma.o
LPUART_TransferCreateHandle                       ./drivers/fsl_lpuart.o
LPUART_TransferCreateHandleEDMA                   ./drivers/fsl_lpuart_edma.o
LPUART_TransferGetReceiveCount                    ./drivers/fsl_lpuart.o
LPUART_TransferGetReceiveCountEDMA                ./drivers/fsl_lpuart_edma.o
LPUART_TransferGetRxRingBufferLength              ./drivers/fsl_lpuart.o
LPUART_TransferGetSendCount                       ./drivers/fsl_lpuart.o
LPUART_TransferGetSendCountEDMA                   ./drivers/fsl_lpuart_edma.o
LPUART_TransferHandleErrorIRQ                     ./drivers/fsl_lpuart.o
LPUART_TransferHandleIRQ                          ./drivers/fsl_lpuart.o
LPUART_TransferReceiveNonBlocking                 ./drivers/fsl_lpuart.o
LPUART_TransferSendNonBlocking                    ./drivers/fsl_lpuart.o
LPUART_TransferStartRingBuffer                    ./drivers/fsl_lpuart.o
LPUART_TransferStopRingBuffer                     ./drivers/fsl_lpuart.o
LPUART_WriteBlocking                              ./drivers/fsl_lpuart.o
                                                  ./component/uart/lpuart_adapter.o
NMI_Handler                                       ./startup/startup_mimxrt1011.o
PIT_1_config                                      ./board/peripherals.o
PIT_1_init                                        ./board/peripherals.o
PIT_Deinit                                        ./drivers/fsl_pit.o
PIT_DriverIRQHandler                              ./startup/startup_mimxrt1011.o
PIT_GetLifetimeTimerCount                         ./drivers/fsl_pit.o
PIT_IRQHandler                                    ./source/speakEZ.o
                                                  ./startup/startup_mimxrt1011.o
PIT_Init                                          ./drivers/fsl_pit.o
                                                  ./board/peripherals.o
PMU_DriverIRQHandler                              ./startup/startup_mimxrt1011.o
PMU_IRQHandler                                    ./startup/startup_mimxrt1011.o
PWM1_0_DriverIRQHandler                           ./startup/startup_mimxrt1011.o
PWM1_0_IRQHandler                                 ./startup/startup_mimxrt1011.o
PWM1_1_DriverIRQHandler                           ./startup/startup_mimxrt1011.o
PWM1_1_IRQHandler                                 ./startup/startup_mimxrt1011.o
PWM1_2_DriverIRQHandler                           ./startup/startup_mimxrt1011.o
PWM1_2_IRQHandler                                 ./startup/startup_mimxrt1011.o
PWM1_3_DriverIRQHandler                           ./startup/startup_mimxrt1011.o
PWM1_3_IRQHandler                                 ./startup/startup_mimxrt1011.o
PWM1_FAULT_DriverIRQHandler                       ./startup/startup_mimxrt1011.o
PWM1_FAULT_IRQHandler                             ./startup/startup_mimxrt1011.o
PendSV_Handler                                    ./startup/startup_mimxrt1011.o
RTWDOG_DriverIRQHandler                           ./startup/startup_mimxrt1011.o
RTWDOG_IRQHandler                                 ./startup/startup_mimxrt1011.o
Reserved68_DriverIRQHandler                       ./startup/startup_mimxrt1011.o
Reserved68_IRQHandler                             ./startup/startup_mimxrt1011.o
Reserved70_DriverIRQHandler                       ./startup/startup_mimxrt1011.o
Reserved70_IRQHandler                             ./startup/startup_mimxrt1011.o
Reserved71_DriverIRQHandler                       ./startup/startup_mimxrt1011.o
Reserved71_IRQHandler                             ./startup/startup_mimxrt1011.o
ResetISR                                          ./startup/startup_mimxrt1011.o
SAI1_DriverIRQHandler                             ./drivers/fsl_sai.o
                                                  ./startup/startup_mimxrt1011.o
SAI1_IRQHandler                                   ./source/speakEZ.o
                                                  ./startup/startup_mimxrt1011.o
SAI1_rxAudio                                      ./source/speakEZ.o
SAI1_txAudio                                      ./source/speakEZ.o
SAI3_DriverIRQHandler                             ./drivers/fsl_sai.o
SAI3_RX_DriverIRQHandler                          ./drivers/fsl_sai.o
                                                  ./startup/startup_mimxrt1011.o
SAI3_RX_IRQHandler                                ./startup/startup_mimxrt1011.o
SAI3_TX_DriverIRQHandler                          ./drivers/fsl_sai.o
                                                  ./startup/startup_mimxrt1011.o
SAI3_TX_IRQHandler                                ./startup/startup_mimxrt1011.o
SAI_1_Rx_config                                   ./board/peripherals.o
SAI_1_Tx_config                                   ./board/peripherals.o
SAI_1_init                                        ./board/peripherals.o
SAI_Deinit                                        ./drivers/fsl_sai.o
SAI_GetClassicI2SConfig                           ./drivers/fsl_sai.o
SAI_GetDSPConfig                                  ./drivers/fsl_sai.o
SAI_GetLeftJustifiedConfig                        ./drivers/fsl_sai.o
SAI_GetRightJustifiedConfig                       ./drivers/fsl_sai.o
SAI_GetTDMConfig                                  ./drivers/fsl_sai.o
SAI_Init                                          ./drivers/fsl_sai.o
                                                  ./board/peripherals.o
SAI_ReadBlocking                                  ./drivers/fsl_sai.o
SAI_ReadMultiChannelBlocking                      ./drivers/fsl_sai.o
SAI_RequestSynthUpdate                            ./source/speakEZ.o
SAI_RxEnable                                      ./drivers/fsl_sai.o
                                                  ./source/speakEZ.o
SAI_RxGetDefaultConfig                            ./drivers/fsl_sai.o
SAI_RxInit                                        ./drivers/fsl_sai.o
SAI_RxReset                                       ./drivers/fsl_sai.o
SAI_RxSetBitClockPolarity                         ./drivers/fsl_sai.o
SAI_RxSetBitClockRate                             ./drivers/fsl_sai.o
                                                  ./board/peripherals.o
SAI_RxSetBitclockConfig                           ./drivers/fsl_sai.o
SAI_RxSetChannelFIFOMask                          ./drivers/fsl_sai.o
SAI_RxSetConfig                                   ./drivers/fsl_sai.o
                                                  ./board/peripherals.o
SAI_RxSetDataOrder                                ./drivers/fsl_sai.o
SAI_RxSetFIFOPacking                              ./drivers/fsl_sai.o
SAI_RxSetFifoConfig                               ./drivers/fsl_sai.o
SAI_RxSetFormat                                   ./drivers/fsl_sai.o
SAI_RxSetFrameSyncConfig                          ./drivers/fsl_sai.o
SAI_RxSetFrameSyncPolarity                        ./drivers/fsl_sai.o
SAI_RxSetSerialDataConfig                         ./drivers/fsl_sai.o
SAI_RxSoftwareReset                               ./drivers/fsl_sai.o
SAI_TransferAbortReceive                          ./drivers/fsl_sai.o
SAI_TransferAbortSend                             ./drivers/fsl_sai.o
SAI_TransferGetReceiveCount                       ./drivers/fsl_sai.o
SAI_TransferGetSendCount                          ./drivers/fsl_sai.o
SAI_TransferReceiveNonBlocking                    ./drivers/fsl_sai.o
SAI_TransferRxCreateHandle                        ./drivers/fsl_sai.o
SAI_TransferRxHandleIRQ                           ./drivers/fsl_sai.o
SAI_TransferRxSetConfig                           ./drivers/fsl_sai.o
SAI_TransferRxSetFormat                           ./drivers/fsl_sai.o
SAI_TransferSendNonBlocking                       ./drivers/fsl_sai.o
SAI_TransferTerminateReceive                      ./drivers/fsl_sai.o
SAI_TransferTerminateSend                         ./drivers/fsl_sai.o
SAI_TransferTxCreateHandle                        ./drivers/fsl_sai.o
SAI_TransferTxHandleIRQ                           ./drivers/fsl_sai.o
SAI_TransferTxSetConfig                           ./drivers/fsl_sai.o
SAI_TransferTxSetFormat                           ./drivers/fsl_sai.o
SAI_TxEnable                                      ./drivers/fsl_sai.o
                                                  ./source/speakEZ.o
SAI_TxGetDefaultConfig                            ./drivers/fsl_sai.o
SAI_TxInit                                        ./drivers/fsl_sai.o
SAI_TxReset                                       ./drivers/fsl_sai.o
SAI_TxSetBitClockPolarity                         ./drivers/fsl_sai.o
SAI_TxSetBitClockRate                             ./drivers/fsl_sai.o
                                                  ./board/peripherals.o
SAI_TxSetBitclockConfig                           ./drivers/fsl_sai.o
SAI_TxSetChannelFIFOMask                          ./drivers/fsl_sai.o
SAI_TxSetConfig                                   ./drivers/fsl_sai.o
                                                  ./board/peripherals.o
SAI_TxSetDataOrder                                ./drivers/fsl_sai.o
SAI_TxSetFIFOPacking                              ./drivers/fsl_sai.o
SAI_TxSetFifoConfig                               ./drivers/fsl_sai.o
SAI_TxSetFormat                                   ./drivers/fsl_sai.o
SAI_TxSetFrameSyncConfig                          ./drivers/fsl_sai.o
SAI_TxSetFrameSyncPolarity                        ./drivers/fsl_sai.o
SAI_TxSetSerialDataConfig                         ./drivers/fsl_sai.o
SAI_TxSoftwareReset                               ./drivers/fsl_sai.o
SAI_WriteBlocking                                 ./drivers/fsl_sai.o
SAI_WriteMultiChannelBlocking                     ./drivers/fsl_sai.o
SDK_DelayAtLeastUs                                ./drivers/fsl_common.o
SDK_Free                                          ./drivers/fsl_common.o
SDK_Malloc                                        ./drivers/fsl_common.o
SNVS_HP_WRAPPER_DriverIRQHandler                  ./startup/startup_mimxrt1011.o
SNVS_HP_WRAPPER_IRQHandler                        ./startup/startup_mimxrt1011.o
SNVS_HP_WRAPPER_TZ_DriverIRQHandler               ./startup/startup_mimxrt1011.o
SNVS_HP_WRAPPER_TZ_IRQHandler                     ./startup/startup_mimxrt1011.o
SNVS_LP_WRAPPER_DriverIRQHandler                  ./startup/startup_mimxrt1011.o
SNVS_LP_WRAPPER_IRQHandler                        ./startup/startup_mimxrt1011.o
SPDIF_DriverIRQHandler                            ./startup/startup_mimxrt1011.o
SPDIF_IRQHandler                                  ./startup/startup_mimxrt1011.o
SRC_DriverIRQHandler                              ./startup/startup_mimxrt1011.o
SRC_IRQHandler                                    ./startup/startup_mimxrt1011.o
SVC_Handler                                       ./startup/startup_mimxrt1011.o
SerialManager_CloseReadHandle                     ./component/serial_manager/serial_manager.o
                                                  ./utilities/fsl_debug_console.o
SerialManager_CloseWriteHandle                    ./component/serial_manager/serial_manager.o
                                                  ./utilities/fsl_debug_console.o
SerialManager_Deinit                              ./component/serial_manager/serial_manager.o
                                                  ./utilities/fsl_debug_console.o
SerialManager_EnterLowpower                       ./component/serial_manager/serial_manager.o
SerialManager_ExitLowpower                        ./component/serial_manager/serial_manager.o
SerialManager_Init                                ./component/serial_manager/serial_manager.o
                                                  ./utilities/fsl_debug_console.o
SerialManager_OpenReadHandle                      ./component/serial_manager/serial_manager.o
                                                  ./utilities/fsl_debug_console.o
SerialManager_OpenWriteHandle                     ./component/serial_manager/serial_manager.o
                                                  ./utilities/fsl_debug_console.o
SerialManager_ReadBlocking                        ./component/serial_manager/serial_manager.o
                                                  ./utilities/fsl_debug_console.o
SerialManager_WriteBlocking                       ./component/serial_manager/serial_manager.o
                                                  ./utilities/fsl_debug_console.o
Serial_UartDeinit                                 ./component/serial_manager/serial_port_uart.o
                                                  ./component/serial_manager/serial_manager.o
Serial_UartInit                                   ./component/serial_manager/serial_port_uart.o
                                                  ./component/serial_manager/serial_manager.o
Serial_UartRead                                   ./component/serial_manager/serial_port_uart.o
                                                  ./component/serial_manager/serial_manager.o
Serial_UartWrite                                  ./component/serial_manager/serial_port_uart.o
                                                  ./component/serial_manager/serial_manager.o
StrFormatPrintf                                   ./utilities/fsl_str.o
StrFormatScanf                                    ./utilities/fsl_str.o
SysTick_Handler                                   ./startup/startup_mimxrt1011.o
SystemCoreClock                                   ./device/system_MIMXRT1011.o
                                                  ./board/clock_config.o
SystemCoreClockUpdate                             ./device/system_MIMXRT1011.o
SystemInit                                        ./device/system_MIMXRT1011.o
                                                  ./startup/startup_mimxrt1011.o
SystemInitHook                                    ./board/board.o
                                                  ./device/system_MIMXRT1011.o
TEMP_LOW_HIGH_DriverIRQHandler                    ./startup/startup_mimxrt1011.o
TEMP_LOW_HIGH_IRQHandler                          ./startup/startup_mimxrt1011.o
TEMP_PANIC_DriverIRQHandler                       ./startup/startup_mimxrt1011.o
TEMP_PANIC_IRQHandler                             ./startup/startup_mimxrt1011.o
TRNG_DriverIRQHandler                             ./startup/startup_mimxrt1011.o
TRNG_IRQHandler                                   ./startup/startup_mimxrt1011.o
USB_EhciGetValidFrameList                         ./usb/host/usb_host_ehci.o
USB_EhciLowPowerPhyInit                           ./usb/phy/usb_phy.o
USB_EhciPhyDeinit                                 ./usb/phy/usb_phy.o
USB_EhciPhyGetBase                                ./usb/phy/usb_phy.o
USB_EhciPhyInit                                   ./usb/phy/usb_phy.o
                                                  ./source/usbmidi.o
USB_EhcihostPhyDisconnectDetectCmd                ./usb/phy/usb_phy.o
                                                  ./usb/host/usb_host_ehci.o
USB_HostApplicationInit                           ./source/speakEZ.o
USB_HostAttachDevice                              ./usb/host/usb_host_devices.o
                                                  ./usb/host/usb_host_ehci.o
USB_HostCancelTransfer                            ./usb/host/usb_host_hci.o
                                                  ./usb/host/usb_host_devices.o
                                                  ./usb/host/class/usb_host_cdc.o
USB_HostCdcControl                                ./usb/host/class/usb_host_cdc.o
USB_HostCdcControlPipeCallback                    ./usb/host/class/usb_host_cdc.o
USB_HostCdcDataInPipeCallback                     ./usb/host/class/usb_host_cdc.o
USB_HostCdcDataOutPipeCallback                    ./usb/host/class/usb_host_cdc.o
USB_HostCdcDataRecv                               ./usb/host/class/usb_host_cdc.o
                                                  ./source/usbmidi.o
USB_HostCdcDataSend                               ./usb/host/class/usb_host_cdc.o
USB_HostCdcDeinit                                 ./usb/host/class/usb_host_cdc.o
                                                  ./source/usbmidi.o
USB_HostCdcGetAcmDescriptor                       ./usb/host/class/usb_host_cdc.o
USB_HostCdcGetAcmLineCoding                       ./usb/host/class/usb_host_cdc.o
USB_HostCdcGetEncapsulatedResponse                ./usb/host/class/usb_host_cdc.o
USB_HostCdcGetPacketsize                          ./usb/host/class/usb_host_cdc.o
                                                  ./source/usbmidi.o
USB_HostCdcInit                                   ./usb/host/class/usb_host_cdc.o
                                                  ./source/usbmidi.o
USB_HostCdcInterruptPipeCallback                  ./usb/host/class/usb_host_cdc.o
USB_HostCdcInterruptRecv                          ./usb/host/class/usb_host_cdc.o
USB_HostCdcSendEncapsulatedCommand                ./usb/host/class/usb_host_cdc.o
USB_HostCdcSetAcmCtrlState                        ./usb/host/class/usb_host_cdc.o
USB_HostCdcSetControlInterface                    ./usb/host/class/usb_host_cdc.o
                                                  ./source/usbmidi.o
USB_HostCdcSetDataInterface                       ./usb/host/class/usb_host_cdc.o
                                                  ./source/usbmidi.o
USB_HostCh9RequestCommon                          ./usb/host/usb_host_framework.o
                                                  ./usb/host/usb_host_devices.o
USB_HostClockInit                                 ./source/usbmidi.o
                                                  ./source/speakEZ.o
USB_HostCloseDeviceInterface                      ./usb/host/usb_host_devices.o
                                                  ./usb/host/class/usb_host_cdc.o
USB_HostClosePipe                                 ./usb/host/usb_host_hci.o
                                                  ./usb/host/usb_host_devices.o
                                                  ./usb/host/class/usb_host_cdc.o
USB_HostDeinit                                    ./usb/host/usb_host_hci.o
USB_HostDetachDevice                              ./usb/host/usb_host_devices.o
                                                  ./usb/host/usb_host_ehci.o
USB_HostDetachDeviceInternal                      ./usb/host/usb_host_devices.o
                                                  ./usb/host/usb_host_hci.o
USB_HostEhciClosePipe                             ./usb/host/usb_host_ehci.o
                                                  ./usb/host/usb_host_hci.o
USB_HostEhciCreate                                ./usb/host/usb_host_ehci.o
                                                  ./usb/host/usb_host_hci.o
USB_HostEhciDestory                               ./usb/host/usb_host_ehci.o
                                                  ./usb/host/usb_host_hci.o
USB_HostEhciIoctl                                 ./usb/host/usb_host_ehci.o
                                                  ./usb/host/usb_host_hci.o
USB_HostEhciIsrFunction                           ./usb/host/usb_host_ehci.o
                                                  ./source/speakEZ.o
USB_HostEhciOpenPipe                              ./usb/host/usb_host_ehci.o
                                                  ./usb/host/usb_host_hci.o
USB_HostEhciReadpipe                              ./usb/host/usb_host_ehci.o
                                                  ./usb/host/usb_host_hci.o
USB_HostEhciTaskFunction                          ./usb/host/usb_host_ehci.o
                                                  ./source/usbmidi.o
USB_HostEhciTransactionDone                       ./usb/host/usb_host_ehci.o
USB_HostEhciWritePipe                             ./usb/host/usb_host_ehci.o
                                                  ./usb/host/usb_host_hci.o
USB_HostEvent                                     ./source/speakEZ.o
USB_HostFreeTransfer                              ./usb/host/usb_host_hci.o
                                                  ./usb/host/usb_host_framework.o
                                                  ./usb/host/usb_host_devices.o
                                                  ./usb/host/class/usb_host_cdc.o
USB_HostGetDeviceAttachState                      ./usb/host/usb_host_devices.o
USB_HostGetVersion                                ./usb/host/usb_host_hci.o
USB_HostHelperGetPeripheralInformation            ./usb/host/usb_host_hci.o
                                                  ./source/usbmidi.o
                                                  ./usb/host/usb_host_ehci.o
                                                  ./usb/host/class/usb_host_cdc.o
USB_HostHelperParseAlternateSetting               ./usb/host/usb_host_hci.o
USB_HostInit                                      ./usb/host/usb_host_hci.o
                                                  ./source/speakEZ.o
USB_HostIsrEnable                                 ./source/usbmidi.o
                                                  ./source/speakEZ.o
USB_HostMallocTransfer                            ./usb/host/usb_host_hci.o
                                                  ./usb/host/usb_host_devices.o
                                                  ./usb/host/class/usb_host_cdc.o
USB_HostMidiEvent                                 ./source/usbmidi.o
                                                  ./source/speakEZ.o
USB_HostMidiTask                                  ./source/usbmidi.o
                                                  ./source/speakEZ.o
USB_HostOpenDeviceInterface                       ./usb/host/usb_host_devices.o
                                                  ./usb/host/class/usb_host_cdc.o
USB_HostOpenPipe                                  ./usb/host/usb_host_hci.o
                                                  ./usb/host/usb_host_devices.o
                                                  ./usb/host/class/usb_host_cdc.o
USB_HostRecv                                      ./usb/host/usb_host_hci.o
                                                  ./usb/host/class/usb_host_cdc.o
USB_HostRemoveDevice                              ./usb/host/usb_host_devices.o
USB_HostRequestControl                            ./usb/host/usb_host_framework.o
USB_HostSend                                      ./usb/host/usb_host_hci.o
                                                  ./usb/host/class/usb_host_cdc.o
USB_HostSendSetup                                 ./usb/host/usb_host_hci.o
                                                  ./usb/host/usb_host_framework.o
                                                  ./usb/host/class/usb_host_cdc.o
USB_HostStandardGetInterface                      ./usb/host/usb_host_framework.o
USB_HostStandardGetStatus                         ./usb/host/usb_host_framework.o
USB_HostStandardSetAddress                        ./usb/host/usb_host_framework.o
                                                  ./usb/host/usb_host_devices.o
USB_HostStandardSetClearFeature                   ./usb/host/usb_host_framework.o
USB_HostStandardSetGetDescriptor                  ./usb/host/usb_host_framework.o
                                                  ./usb/host/usb_host_devices.o
USB_HostStandardSetInterface                      ./usb/host/usb_host_framework.o
USB_HostStandardSyncFrame                         ./usb/host/usb_host_framework.o
USB_HostTaskFn                                    ./source/usbmidi.o
                                                  ./source/speakEZ.o
USB_HostValidateDevice                            ./usb/host/usb_host_devices.o
USB_OTG1_DriverIRQHandler                         ./startup/startup_mimxrt1011.o
USB_OTG1_IRQHandler                               ./source/speakEZ.o
                                                  ./startup/startup_mimxrt1011.o
USB_OsaEnterCritical                              ./osa/usb_osa_bm.o
                                                  ./usb/host/usb_host_hci.o
USB_OsaEventCheck                                 ./osa/usb_osa_bm.o
USB_OsaEventClear                                 ./osa/usb_osa_bm.o
USB_OsaEventCreate                                ./osa/usb_osa_bm.o
                                                  ./usb/host/usb_host_ehci.o
USB_OsaEventDestroy                               ./osa/usb_osa_bm.o
                                                  ./usb/host/usb_host_ehci.o
USB_OsaEventSet                                   ./osa/usb_osa_bm.o
                                                  ./usb/host/usb_host_ehci.o
USB_OsaEventWait                                  ./osa/usb_osa_bm.o
                                                  ./usb/host/usb_host_ehci.o
USB_OsaExitCritical                               ./osa/usb_osa_bm.o
                                                  ./usb/host/usb_host_hci.o
USB_OsaMemoryAllocate                             ./osa/usb_osa_bm.o
                                                  ./usb/host/usb_host_ehci.o
                                                  ./usb/host/usb_host_devices.o
                                                  ./usb/host/class/usb_host_cdc.o
USB_OsaMemoryFree                                 ./osa/usb_osa_bm.o
                                                  ./usb/host/usb_host_ehci.o
                                                  ./usb/host/usb_host_devices.o
                                                  ./usb/host/class/usb_host_cdc.o
USB_OsaMsgqCheck                                  ./osa/usb_osa_bm.o
USB_OsaMsgqCreate                                 ./osa/usb_osa_bm.o
USB_OsaMsgqDestroy                                ./osa/usb_osa_bm.o
USB_OsaMsgqRecv                                   ./osa/usb_osa_bm.o
USB_OsaMsgqSend                                   ./osa/usb_osa_bm.o
USB_OsaMutexCreate                                ./osa/usb_osa_bm.o
                                                  ./usb/host/usb_host_hci.o
                                                  ./usb/host/usb_host_ehci.o
USB_OsaMutexDestroy                               ./osa/usb_osa_bm.o
                                                  ./usb/host/usb_host_hci.o
                                                  ./usb/host/usb_host_ehci.o
USB_OsaMutexLock                                  ./osa/usb_osa_bm.o
                                                  ./usb/host/usb_host_hci.o
                                                  ./usb/host/usb_host_ehci.o
                                                  ./usb/host/usb_host_devices.o
USB_OsaMutexUnlock                                ./osa/usb_osa_bm.o
                                                  ./usb/host/usb_host_hci.o
                                                  ./usb/host/usb_host_ehci.o
                                                  ./usb/host/usb_host_devices.o
USB_OsaSemCreate                                  ./osa/usb_osa_bm.o
USB_OsaSemDestroy                                 ./osa/usb_osa_bm.o
USB_OsaSemPost                                    ./osa/usb_osa_bm.o
USB_OsaSemWait                                    ./osa/usb_osa_bm.o
USB_PHY_DriverIRQHandler                          ./startup/startup_mimxrt1011.o
USB_PHY_IRQHandler                                ./startup/startup_mimxrt1011.o
WDOG1_DriverIRQHandler                            ./startup/startup_mimxrt1011.o
WDOG1_IRQHandler                                  ./startup/startup_mimxrt1011.o
WDOG2_DriverIRQHandler                            ./startup/startup_mimxrt1011.o
WDOG2_IRQHandler                                  ./startup/startup_mimxrt1011.o
WM8960_ConfigDataFormat                           ./codec/fsl_wm8960.o
                                                  ./codec/fsl_codec_adapter.o
WM8960_Deinit                                     ./codec/fsl_wm8960.o
                                                  ./codec/fsl_codec_adapter.o
WM8960_GetVolume                                  ./codec/fsl_wm8960.o
WM8960_Init                                       ./codec/fsl_wm8960.o
                                                  ./codec/fsl_codec_adapter.o
WM8960_ModifyReg                                  ./codec/fsl_wm8960.o
WM8960_ReadReg                                    ./codec/fsl_wm8960.o
WM8960_SetDataRoute                               ./codec/fsl_wm8960.o
WM8960_SetJackDetect                              ./codec/fsl_wm8960.o
WM8960_SetLeftInput                               ./codec/fsl_wm8960.o
WM8960_SetMasterSlave                             ./codec/fsl_wm8960.o
WM8960_SetModule                                  ./codec/fsl_wm8960.o
                                                  ./codec/fsl_codec_adapter.o
WM8960_SetMute                                    ./codec/fsl_wm8960.o
                                                  ./codec/fsl_codec_adapter.o
WM8960_SetPlay                                    ./codec/fsl_wm8960.o
                                                  ./codec/fsl_codec_adapter.o
WM8960_SetProtocol                                ./codec/fsl_wm8960.o
WM8960_SetRightInput                              ./codec/fsl_wm8960.o
WM8960_SetVolume                                  ./codec/fsl_wm8960.o
                                                  ./codec/fsl_codec_adapter.o
WM8960_WriteReg                                   ./codec/fsl_wm8960.o
XBAR1_IRQ_0_1_2_3_DriverIRQHandler                ./startup/startup_mimxrt1011.o
XBAR1_IRQ_0_1_2_3_IRQHandler                      ./startup/startup_mimxrt1011.o
_Csys_alloc                                       c:/nxp/mcuxpressoide_11.0.1_2563/ide/plugins/com.nxp.mcuxpresso.tools.win32_11.0.1.201907311258/tools/bin/../lib/gcc/arm-none-eabi/8.2.1/../../../../arm-none-eabi/lib/thumb/v7e-m+fp/hard\libcr_c.a(alloc.o)
                                                  c:/nxp/mcuxpressoide_11.0.1_2563/ide/plugins/com.nxp.mcuxpresso.tools.win32_11.0.1.201907311258/tools/bin/../lib/gcc/arm-none-eabi/8.2.1/../../../../arm-none-eabi/lib/thumb/v7e-m+fp/hard\libcr_c.a(_deferredlazyseek.o)
_Cwritebuf                                        c:/nxp/mcuxpressoide_11.0.1_2563/ide/plugins/com.nxp.mcuxpresso.tools.win32_11.0.1.201907311258/tools/bin/../lib/gcc/arm-none-eabi/8.2.1/../../../../arm-none-eabi/lib/thumb/v7e-m+fp/hard\libcr_c.a(_writebuf.o)
                                                  c:/nxp/mcuxpressoide_11.0.1_2563/ide/plugins/com.nxp.mcuxpresso.tools.win32_11.0.1.201907311258/tools/bin/../lib/gcc/arm-none-eabi/8.2.1/../../../../arm-none-eabi/lib/thumb/v7e-m+fp/hard\libcr_c.a(_fflush.o)
                                                  c:/nxp/mcuxpressoide_11.0.1_2563/ide/plugins/com.nxp.mcuxpresso.tools.win32_11.0.1.201907311258/tools/bin/../lib/gcc/arm-none-eabi/8.2.1/../../../../arm-none-eabi/lib/thumb/v7e-m+fp/hard\libcr_c.a(_deferredlazyseek.o)
__CR_SEMIHOST                                     c:/nxp/mcuxpressoide_11.0.1_2563/ide/plugins/com.nxp.mcuxpresso.tools.win32_11.0.1.201907311258/tools/bin/../lib/gcc/arm-none-eabi/8.2.1/../../../../arm-none-eabi/lib/thumb/v7e-m+fp/hard\libcr_semihost_nf.a(_cr__main.o)
__Ciob                                            c:/nxp/mcuxpressoide_11.0.1_2563/ide/plugins/com.nxp.mcuxpresso.tools.win32_11.0.1.201907311258/tools/bin/../lib/gcc/arm-none-eabi/8.2.1/../../../../arm-none-eabi/lib/thumb/v7e-m+fp/hard\libcr_semihost_nf.a(__ciob.o)
                                                  c:/nxp/mcuxpressoide_11.0.1_2563/ide/plugins/com.nxp.mcuxpresso.tools.win32_11.0.1.201907311258/tools/bin/../lib/gcc/arm-none-eabi/8.2.1/../../../../arm-none-eabi/lib/thumb/v7e-m+fp/hard\libcr_c.a(fflush.o)
                                                  c:/nxp/mcuxpressoide_11.0.1_2563/ide/plugins/com.nxp.mcuxpresso.tools.win32_11.0.1.201907311258/tools/bin/../lib/gcc/arm-none-eabi/8.2.1/../../../../arm-none-eabi/lib/thumb/v7e-m+fp/hard\libcr_c.a(printf.o)
                                                  c:/nxp/mcuxpressoide_11.0.1_2563/ide/plugins/com.nxp.mcuxpresso.tools.win32_11.0.1.201907311258/tools/bin/../lib/gcc/arm-none-eabi/8.2.1/../../../../arm-none-eabi/lib/thumb/v7e-m+fp/hard\libcr_c.a(initio.o)
__Vectors                                         ./startup/startup_mimxrt1011.o
                                                  ./xip/fsl_flexspi_nor_boot.o
__aeabi_cdcmpeq                                   c:/nxp/mcuxpressoide_11.0.1_2563/ide/plugins/com.nxp.mcuxpresso.tools.win32_11.0.1.201907311258/tools/bin/../lib/gcc/arm-none-eabi/8.2.1/thumb/v7e-m+fp/hard\libcr_eabihelpers.a(double.o)
__aeabi_cdcmple                                   c:/nxp/mcuxpressoide_11.0.1_2563/ide/plugins/com.nxp.mcuxpresso.tools.win32_11.0.1.201907311258/tools/bin/../lib/gcc/arm-none-eabi/8.2.1/thumb/v7e-m+fp/hard\libcr_eabihelpers.a(double.o)
__aeabi_cdrcmple                                  c:/nxp/mcuxpressoide_11.0.1_2563/ide/plugins/com.nxp.mcuxpresso.tools.win32_11.0.1.201907311258/tools/bin/../lib/gcc/arm-none-eabi/8.2.1/thumb/v7e-m+fp/hard\libcr_eabihelpers.a(double.o)
__aeabi_cfcmpeq                                   c:/nxp/mcuxpressoide_11.0.1_2563/ide/plugins/com.nxp.mcuxpresso.tools.win32_11.0.1.201907311258/tools/bin/../lib/gcc/arm-none-eabi/8.2.1/thumb/v7e-m+fp/hard\libcr_eabihelpers.a(float.o)
__aeabi_cfcmple                                   c:/nxp/mcuxpressoide_11.0.1_2563/ide/plugins/com.nxp.mcuxpresso.tools.win32_11.0.1.201907311258/tools/bin/../lib/gcc/arm-none-eabi/8.2.1/thumb/v7e-m+fp/hard\libcr_eabihelpers.a(float.o)
__aeabi_cfrcmple                                  c:/nxp/mcuxpressoide_11.0.1_2563/ide/plugins/com.nxp.mcuxpresso.tools.win32_11.0.1.201907311258/tools/bin/../lib/gcc/arm-none-eabi/8.2.1/thumb/v7e-m+fp/hard\libcr_eabihelpers.a(float.o)
__aeabi_d2f                                       c:/nxp/mcuxpressoide_11.0.1_2563/ide/plugins/com.nxp.mcuxpresso.tools.win32_11.0.1.201907311258/tools/bin/../lib/gcc/arm-none-eabi/8.2.1/thumb/v7e-m+fp/hard\libcr_eabihelpers.a(double.o)
                                                  c:/nxp/mcuxpressoide_11.0.1_2563/ide/plugins/com.nxp.mcuxpresso.tools.win32_11.0.1.201907311258/tools/bin/../lib/gcc/arm-none-eabi/8.2.1/../../../../arm-none-eabi/lib/thumb/v7e-m+fp/hard\libcr_c.a(powf.o)
                                                  ./source/speakEZ.o
__aeabi_d2iz                                      c:/nxp/mcuxpressoide_11.0.1_2563/ide/plugins/com.nxp.mcuxpresso.tools.win32_11.0.1.201907311258/tools/bin/../lib/gcc/arm-none-eabi/8.2.1/thumb/v7e-m+fp/hard\libcr_eabihelpers.a(double.o)
                                                  c:/nxp/mcuxpressoide_11.0.1_2563/ide/plugins/com.nxp.mcuxpresso.tools.win32_11.0.1.201907311258/tools/bin/../lib/gcc/arm-none-eabi/8.2.1/../../../../arm-none-eabi/lib/thumb/v7e-m+fp/hard\libcr_c.a(powf.o)
                                                  ./source/speakEZ.o
__aeabi_d2lz                                      c:/nxp/mcuxpressoide_11.0.1_2563/ide/plugins/com.nxp.mcuxpresso.tools.win32_11.0.1.201907311258/tools/bin/../lib/gcc/arm-none-eabi/8.2.1/thumb/v7e-m+fp/hard\libcr_eabihelpers.a(double.o)
__aeabi_d2uiz                                     c:/nxp/mcuxpressoide_11.0.1_2563/ide/plugins/com.nxp.mcuxpresso.tools.win32_11.0.1.201907311258/tools/bin/../lib/gcc/arm-none-eabi/8.2.1/thumb/v7e-m+fp/hard\libcr_eabihelpers.a(double.o)
__aeabi_d2ulz                                     c:/nxp/mcuxpressoide_11.0.1_2563/ide/plugins/com.nxp.mcuxpresso.tools.win32_11.0.1.201907311258/tools/bin/../lib/gcc/arm-none-eabi/8.2.1/thumb/v7e-m+fp/hard\libcr_eabihelpers.a(double.o)
__aeabi_dadd                                      c:/nxp/mcuxpressoide_11.0.1_2563/ide/plugins/com.nxp.mcuxpresso.tools.win32_11.0.1.201907311258/tools/bin/../lib/gcc/arm-none-eabi/8.2.1/thumb/v7e-m+fp/hard\libcr_eabihelpers.a(double.o)
                                                  c:/nxp/mcuxpressoide_11.0.1_2563/ide/plugins/com.nxp.mcuxpresso.tools.win32_11.0.1.201907311258/tools/bin/../lib/gcc/arm-none-eabi/8.2.1/../../../../arm-none-eabi/lib/thumb/v7e-m+fp/hard\libcr_c.a(powf.o)
                                                  ./source/speakEZ.o
__aeabi_dcmpeq                                    c:/nxp/mcuxpressoide_11.0.1_2563/ide/plugins/com.nxp.mcuxpresso.tools.win32_11.0.1.201907311258/tools/bin/../lib/gcc/arm-none-eabi/8.2.1/thumb/v7e-m+fp/hard\libcr_eabihelpers.a(double.o)
__aeabi_dcmpge                                    c:/nxp/mcuxpressoide_11.0.1_2563/ide/plugins/com.nxp.mcuxpresso.tools.win32_11.0.1.201907311258/tools/bin/../lib/gcc/arm-none-eabi/8.2.1/thumb/v7e-m+fp/hard\libcr_eabihelpers.a(double.o)
                                                  c:/nxp/mcuxpressoide_11.0.1_2563/ide/plugins/com.nxp.mcuxpresso.tools.win32_11.0.1.201907311258/tools/bin/../lib/gcc/arm-none-eabi/8.2.1/../../../../arm-none-eabi/lib/thumb/v7e-m+fp/hard\libcr_c.a(powf.o)
__aeabi_dcmpgt                                    c:/nxp/mcuxpressoide_11.0.1_2563/ide/plugins/com.nxp.mcuxpresso.tools.win32_11.0.1.201907311258/tools/bin/../lib/gcc/arm-none-eabi/8.2.1/thumb/v7e-m+fp/hard\libcr_eabihelpers.a(double.o)
__aeabi_dcmple                                    c:/nxp/mcuxpressoide_11.0.1_2563/ide/plugins/com.nxp.mcuxpresso.tools.win32_11.0.1.201907311258/tools/bin/../lib/gcc/arm-none-eabi/8.2.1/thumb/v7e-m+fp/hard\libcr_eabihelpers.a(double.o)
                                                  c:/nxp/mcuxpressoide_11.0.1_2563/ide/plugins/com.nxp.mcuxpresso.tools.win32_11.0.1.201907311258/tools/bin/../lib/gcc/arm-none-eabi/8.2.1/../../../../arm-none-eabi/lib/thumb/v7e-m+fp/hard\libcr_c.a(powf.o)
__aeabi_dcmplt                                    c:/nxp/mcuxpressoide_11.0.1_2563/ide/plugins/com.nxp.mcuxpresso.tools.win32_11.0.1.201907311258/tools/bin/../lib/gcc/arm-none-eabi/8.2.1/thumb/v7e-m+fp/hard\libcr_eabihelpers.a(double.o)
__aeabi_dcmpun                                    c:/nxp/mcuxpressoide_11.0.1_2563/ide/plugins/com.nxp.mcuxpresso.tools.win32_11.0.1.201907311258/tools/bin/../lib/gcc/arm-none-eabi/8.2.1/thumb/v7e-m+fp/hard\libcr_eabihelpers.a(double.o)
__aeabi_ddiv                                      c:/nxp/mcuxpressoide_11.0.1_2563/ide/plugins/com.nxp.mcuxpresso.tools.win32_11.0.1.201907311258/tools/bin/../lib/gcc/arm-none-eabi/8.2.1/thumb/v7e-m+fp/hard\libcr_eabihelpers.a(double.o)
                                                  ./source/speakEZ.o
__aeabi_dmul                                      c:/nxp/mcuxpressoide_11.0.1_2563/ide/plugins/com.nxp.mcuxpresso.tools.win32_11.0.1.201907311258/tools/bin/../lib/gcc/arm-none-eabi/8.2.1/thumb/v7e-m+fp/hard\libcr_eabihelpers.a(double.o)
                                                  c:/nxp/mcuxpressoide_11.0.1_2563/ide/plugins/com.nxp.mcuxpresso.tools.win32_11.0.1.201907311258/tools/bin/../lib/gcc/arm-none-eabi/8.2.1/../../../../arm-none-eabi/lib/thumb/v7e-m+fp/hard\libcr_c.a(powf.o)
                                                  ./source/speakEZ.o
__aeabi_dneg                                      c:/nxp/mcuxpressoide_11.0.1_2563/ide/plugins/com.nxp.mcuxpresso.tools.win32_11.0.1.201907311258/tools/bin/../lib/gcc/arm-none-eabi/8.2.1/thumb/v7e-m+fp/hard\libcr_eabihelpers.a(double.o)
__aeabi_drsub                                     c:/nxp/mcuxpressoide_11.0.1_2563/ide/plugins/com.nxp.mcuxpresso.tools.win32_11.0.1.201907311258/tools/bin/../lib/gcc/arm-none-eabi/8.2.1/thumb/v7e-m+fp/hard\libcr_eabihelpers.a(double.o)
__aeabi_dsub                                      c:/nxp/mcuxpressoide_11.0.1_2563/ide/plugins/com.nxp.mcuxpresso.tools.win32_11.0.1.201907311258/tools/bin/../lib/gcc/arm-none-eabi/8.2.1/thumb/v7e-m+fp/hard\libcr_eabihelpers.a(double.o)
                                                  c:/nxp/mcuxpressoide_11.0.1_2563/ide/plugins/com.nxp.mcuxpresso.tools.win32_11.0.1.201907311258/tools/bin/../lib/gcc/arm-none-eabi/8.2.1/../../../../arm-none-eabi/lib/thumb/v7e-m+fp/hard\libcr_c.a(powf.o)
                                                  ./source/speakEZ.o
__aeabi_f2d                                       c:/nxp/mcuxpressoide_11.0.1_2563/ide/plugins/com.nxp.mcuxpresso.tools.win32_11.0.1.201907311258/tools/bin/../lib/gcc/arm-none-eabi/8.2.1/thumb/v7e-m+fp/hard\libcr_eabihelpers.a(float.o)
                                                  c:/nxp/mcuxpressoide_11.0.1_2563/ide/plugins/com.nxp.mcuxpresso.tools.win32_11.0.1.201907311258/tools/bin/../lib/gcc/arm-none-eabi/8.2.1/../../../../arm-none-eabi/lib/thumb/v7e-m+fp/hard\libcr_c.a(powf.o)
                                                  ./source/speakEZ.o
__aeabi_f2iz                                      c:/nxp/mcuxpressoide_11.0.1_2563/ide/plugins/com.nxp.mcuxpresso.tools.win32_11.0.1.201907311258/tools/bin/../lib/gcc/arm-none-eabi/8.2.1/thumb/v7e-m+fp/hard\libcr_eabihelpers.a(float.o)
__aeabi_f2lz                                      c:/nxp/mcuxpressoide_11.0.1_2563/ide/plugins/com.nxp.mcuxpresso.tools.win32_11.0.1.201907311258/tools/bin/../lib/gcc/arm-none-eabi/8.2.1/thumb/v7e-m+fp/hard\libcr_eabihelpers.a(float.o)
__aeabi_f2uiz                                     c:/nxp/mcuxpressoide_11.0.1_2563/ide/plugins/com.nxp.mcuxpresso.tools.win32_11.0.1.201907311258/tools/bin/../lib/gcc/arm-none-eabi/8.2.1/thumb/v7e-m+fp/hard\libcr_eabihelpers.a(float.o)
__aeabi_f2ulz                                     c:/nxp/mcuxpressoide_11.0.1_2563/ide/plugins/com.nxp.mcuxpresso.tools.win32_11.0.1.201907311258/tools/bin/../lib/gcc/arm-none-eabi/8.2.1/thumb/v7e-m+fp/hard\libcr_eabihelpers.a(float.o)
__aeabi_fadd                                      c:/nxp/mcuxpressoide_11.0.1_2563/ide/plugins/com.nxp.mcuxpresso.tools.win32_11.0.1.201907311258/tools/bin/../lib/gcc/arm-none-eabi/8.2.1/thumb/v7e-m+fp/hard\libcr_eabihelpers.a(float.o)
__aeabi_fcmpeq                                    c:/nxp/mcuxpressoide_11.0.1_2563/ide/plugins/com.nxp.mcuxpresso.tools.win32_11.0.1.201907311258/tools/bin/../lib/gcc/arm-none-eabi/8.2.1/thumb/v7e-m+fp/hard\libcr_eabihelpers.a(float.o)
__aeabi_fcmpge                                    c:/nxp/mcuxpressoide_11.0.1_2563/ide/plugins/com.nxp.mcuxpresso.tools.win32_11.0.1.201907311258/tools/bin/../lib/gcc/arm-none-eabi/8.2.1/thumb/v7e-m+fp/hard\libcr_eabihelpers.a(float.o)
__aeabi_fcmpgt                                    c:/nxp/mcuxpressoide_11.0.1_2563/ide/plugins/com.nxp.mcuxpresso.tools.win32_11.0.1.201907311258/tools/bin/../lib/gcc/arm-none-eabi/8.2.1/thumb/v7e-m+fp/hard\libcr_eabihelpers.a(float.o)
__aeabi_fcmple                                    c:/nxp/mcuxpressoide_11.0.1_2563/ide/plugins/com.nxp.mcuxpresso.tools.win32_11.0.1.201907311258/tools/bin/../lib/gcc/arm-none-eabi/8.2.1/thumb/v7e-m+fp/hard\libcr_eabihelpers.a(float.o)
__aeabi_fcmplt                                    c:/nxp/mcuxpressoide_11.0.1_2563/ide/plugins/com.nxp.mcuxpresso.tools.win32_11.0.1.201907311258/tools/bin/../lib/gcc/arm-none-eabi/8.2.1/thumb/v7e-m+fp/hard\libcr_eabihelpers.a(float.o)
__aeabi_fcmpun                                    c:/nxp/mcuxpressoide_11.0.1_2563/ide/plugins/com.nxp.mcuxpresso.tools.win32_11.0.1.201907311258/tools/bin/../lib/gcc/arm-none-eabi/8.2.1/thumb/v7e-m+fp/hard\libcr_eabihelpers.a(float.o)
__aeabi_fdiv                                      c:/nxp/mcuxpressoide_11.0.1_2563/ide/plugins/com.nxp.mcuxpresso.tools.win32_11.0.1.201907311258/tools/bin/../lib/gcc/arm-none-eabi/8.2.1/thumb/v7e-m+fp/hard\libcr_eabihelpers.a(float.o)
__aeabi_fmul                                      c:/nxp/mcuxpressoide_11.0.1_2563/ide/plugins/com.nxp.mcuxpresso.tools.win32_11.0.1.201907311258/tools/bin/../lib/gcc/arm-none-eabi/8.2.1/thumb/v7e-m+fp/hard\libcr_eabihelpers.a(float.o)
__aeabi_fneg                                      c:/nxp/mcuxpressoide_11.0.1_2563/ide/plugins/com.nxp.mcuxpresso.tools.win32_11.0.1.201907311258/tools/bin/../lib/gcc/arm-none-eabi/8.2.1/thumb/v7e-m+fp/hard\libcr_eabihelpers.a(float.o)
__aeabi_frsub                                     c:/nxp/mcuxpressoide_11.0.1_2563/ide/plugins/com.nxp.mcuxpresso.tools.win32_11.0.1.201907311258/tools/bin/../lib/gcc/arm-none-eabi/8.2.1/thumb/v7e-m+fp/hard\libcr_eabihelpers.a(float.o)
__aeabi_fsub                                      c:/nxp/mcuxpressoide_11.0.1_2563/ide/plugins/com.nxp.mcuxpresso.tools.win32_11.0.1.201907311258/tools/bin/../lib/gcc/arm-none-eabi/8.2.1/thumb/v7e-m+fp/hard\libcr_eabihelpers.a(float.o)
__aeabi_i2d                                       c:/nxp/mcuxpressoide_11.0.1_2563/ide/plugins/com.nxp.mcuxpresso.tools.win32_11.0.1.201907311258/tools/bin/../lib/gcc/arm-none-eabi/8.2.1/thumb/v7e-m+fp/hard\libcr_eabihelpers.a(double.o)
__aeabi_i2f                                       c:/nxp/mcuxpressoide_11.0.1_2563/ide/plugins/com.nxp.mcuxpresso.tools.win32_11.0.1.201907311258/tools/bin/../lib/gcc/arm-none-eabi/8.2.1/thumb/v7e-m+fp/hard\libcr_eabihelpers.a(float.o)
__aeabi_idiv0                                     c:/nxp/mcuxpressoide_11.0.1_2563/ide/plugins/com.nxp.mcuxpresso.tools.win32_11.0.1.201907311258/tools/bin/../lib/gcc/arm-none-eabi/8.2.1/thumb/v7e-m+fp/hard\libcr_eabihelpers.a(division_idiv0.o)
                                                  c:/nxp/mcuxpressoide_11.0.1_2563/ide/plugins/com.nxp.mcuxpresso.tools.win32_11.0.1.201907311258/tools/bin/../lib/gcc/arm-none-eabi/8.2.1/thumb/v7e-m+fp/hard\libcr_eabihelpers.a(division_64.o)
__aeabi_l2d                                       c:/nxp/mcuxpressoide_11.0.1_2563/ide/plugins/com.nxp.mcuxpresso.tools.win32_11.0.1.201907311258/tools/bin/../lib/gcc/arm-none-eabi/8.2.1/thumb/v7e-m+fp/hard\libcr_eabihelpers.a(double.o)
__aeabi_l2f                                       c:/nxp/mcuxpressoide_11.0.1_2563/ide/plugins/com.nxp.mcuxpresso.tools.win32_11.0.1.201907311258/tools/bin/../lib/gcc/arm-none-eabi/8.2.1/thumb/v7e-m+fp/hard\libcr_eabihelpers.a(float.o)
__aeabi_ldivmod                                   c:/nxp/mcuxpressoide_11.0.1_2563/ide/plugins/com.nxp.mcuxpresso.tools.win32_11.0.1.201907311258/tools/bin/../lib/gcc/arm-none-eabi/8.2.1/thumb/v7e-m+fp/hard\libcr_eabihelpers.a(division_64.o)
                                                  ./device/system_MIMXRT1011.o
__aeabi_lowlevel_memset                           c:/nxp/mcuxpressoide_11.0.1_2563/ide/plugins/com.nxp.mcuxpresso.tools.win32_11.0.1.201907311258/tools/bin/../lib/gcc/arm-none-eabi/8.2.1/thumb/v7e-m+fp/hard\libcr_eabihelpers.a(memcpy.o)
                                                  c:/nxp/mcuxpressoide_11.0.1_2563/ide/plugins/com.nxp.mcuxpresso.tools.win32_11.0.1.201907311258/tools/bin/../lib/gcc/arm-none-eabi/8.2.1/../../../../arm-none-eabi/lib/thumb/v7e-m+fp/hard\libcr_c.a(memset.o)
__aeabi_memclr                                    c:/nxp/mcuxpressoide_11.0.1_2563/ide/plugins/com.nxp.mcuxpresso.tools.win32_11.0.1.201907311258/tools/bin/../lib/gcc/arm-none-eabi/8.2.1/thumb/v7e-m+fp/hard\libcr_eabihelpers.a(memcpy.o)
__aeabi_memclr4                                   c:/nxp/mcuxpressoide_11.0.1_2563/ide/plugins/com.nxp.mcuxpresso.tools.win32_11.0.1.201907311258/tools/bin/../lib/gcc/arm-none-eabi/8.2.1/thumb/v7e-m+fp/hard\libcr_eabihelpers.a(memcpy.o)
__aeabi_memclr8                                   c:/nxp/mcuxpressoide_11.0.1_2563/ide/plugins/com.nxp.mcuxpresso.tools.win32_11.0.1.201907311258/tools/bin/../lib/gcc/arm-none-eabi/8.2.1/thumb/v7e-m+fp/hard\libcr_eabihelpers.a(memcpy.o)
__aeabi_memcpy                                    c:/nxp/mcuxpressoide_11.0.1_2563/ide/plugins/com.nxp.mcuxpresso.tools.win32_11.0.1.201907311258/tools/bin/../lib/gcc/arm-none-eabi/8.2.1/thumb/v7e-m+fp/hard\libcr_eabihelpers.a(memcpy.o)
                                                  c:/nxp/mcuxpressoide_11.0.1_2563/ide/plugins/com.nxp.mcuxpresso.tools.win32_11.0.1.201907311258/tools/bin/../lib/gcc/arm-none-eabi/8.2.1/../../../../arm-none-eabi/lib/thumb/v7e-m+fp/hard\libcr_c.a(memcpy.o)
__aeabi_memcpy4                                   c:/nxp/mcuxpressoide_11.0.1_2563/ide/plugins/com.nxp.mcuxpresso.tools.win32_11.0.1.201907311258/tools/bin/../lib/gcc/arm-none-eabi/8.2.1/thumb/v7e-m+fp/hard\libcr_eabihelpers.a(memcpy.o)
__aeabi_memcpy8                                   c:/nxp/mcuxpressoide_11.0.1_2563/ide/plugins/com.nxp.mcuxpresso.tools.win32_11.0.1.201907311258/tools/bin/../lib/gcc/arm-none-eabi/8.2.1/thumb/v7e-m+fp/hard\libcr_eabihelpers.a(memcpy.o)
__aeabi_memmove                                   c:/nxp/mcuxpressoide_11.0.1_2563/ide/plugins/com.nxp.mcuxpresso.tools.win32_11.0.1.201907311258/tools/bin/../lib/gcc/arm-none-eabi/8.2.1/thumb/v7e-m+fp/hard\libcr_eabihelpers.a(memcpy.o)
__aeabi_memmove4                                  c:/nxp/mcuxpressoide_11.0.1_2563/ide/plugins/com.nxp.mcuxpresso.tools.win32_11.0.1.201907311258/tools/bin/../lib/gcc/arm-none-eabi/8.2.1/thumb/v7e-m+fp/hard\libcr_eabihelpers.a(memcpy.o)
__aeabi_memmove8                                  c:/nxp/mcuxpressoide_11.0.1_2563/ide/plugins/com.nxp.mcuxpresso.tools.win32_11.0.1.201907311258/tools/bin/../lib/gcc/arm-none-eabi/8.2.1/thumb/v7e-m+fp/hard\libcr_eabihelpers.a(memcpy.o)
__aeabi_memset                                    c:/nxp/mcuxpressoide_11.0.1_2563/ide/plugins/com.nxp.mcuxpresso.tools.win32_11.0.1.201907311258/tools/bin/../lib/gcc/arm-none-eabi/8.2.1/thumb/v7e-m+fp/hard\libcr_eabihelpers.a(memcpy.o)
__aeabi_memset4                                   c:/nxp/mcuxpressoide_11.0.1_2563/ide/plugins/com.nxp.mcuxpresso.tools.win32_11.0.1.201907311258/tools/bin/../lib/gcc/arm-none-eabi/8.2.1/thumb/v7e-m+fp/hard\libcr_eabihelpers.a(memcpy.o)
__aeabi_memset8                                   c:/nxp/mcuxpressoide_11.0.1_2563/ide/plugins/com.nxp.mcuxpresso.tools.win32_11.0.1.201907311258/tools/bin/../lib/gcc/arm-none-eabi/8.2.1/thumb/v7e-m+fp/hard\libcr_eabihelpers.a(memcpy.o)
__aeabi_ui2d                                      c:/nxp/mcuxpressoide_11.0.1_2563/ide/plugins/com.nxp.mcuxpresso.tools.win32_11.0.1.201907311258/tools/bin/../lib/gcc/arm-none-eabi/8.2.1/thumb/v7e-m+fp/hard\libcr_eabihelpers.a(double.o)
                                                  ./source/speakEZ.o
__aeabi_ui2f                                      c:/nxp/mcuxpressoide_11.0.1_2563/ide/plugins/com.nxp.mcuxpresso.tools.win32_11.0.1.201907311258/tools/bin/../lib/gcc/arm-none-eabi/8.2.1/thumb/v7e-m+fp/hard\libcr_eabihelpers.a(float.o)
__aeabi_ul2d                                      c:/nxp/mcuxpressoide_11.0.1_2563/ide/plugins/com.nxp.mcuxpresso.tools.win32_11.0.1.201907311258/tools/bin/../lib/gcc/arm-none-eabi/8.2.1/thumb/v7e-m+fp/hard\libcr_eabihelpers.a(double.o)
__aeabi_ul2f                                      c:/nxp/mcuxpressoide_11.0.1_2563/ide/plugins/com.nxp.mcuxpresso.tools.win32_11.0.1.201907311258/tools/bin/../lib/gcc/arm-none-eabi/8.2.1/thumb/v7e-m+fp/hard\libcr_eabihelpers.a(float.o)
__aeabi_uldivmod                                  c:/nxp/mcuxpressoide_11.0.1_2563/ide/plugins/com.nxp.mcuxpresso.tools.win32_11.0.1.201907311258/tools/bin/../lib/gcc/arm-none-eabi/8.2.1/thumb/v7e-m+fp/hard\libcr_eabihelpers.a(division_64.o)
                                                  ./device/system_MIMXRT1011.o
                                                  ./drivers/fsl_common.o
                                                  ./drivers/fsl_clock.o
__base_NCACHE_REGION                              ./board/board.o
__bhs_ldivmod1                                    c:/nxp/mcuxpressoide_11.0.1_2563/ide/plugins/com.nxp.mcuxpresso.tools.win32_11.0.1.201907311258/tools/bin/../lib/gcc/arm-none-eabi/8.2.1/thumb/v7e-m+fp/hard\libcr_eabihelpers.a(division_64.o)
__bhs_ui2d                                        c:/nxp/mcuxpressoide_11.0.1_2563/ide/plugins/com.nxp.mcuxpresso.tools.win32_11.0.1.201907311258/tools/bin/../lib/gcc/arm-none-eabi/8.2.1/thumb/v7e-m+fp/hard\libcr_eabihelpers.a(double.o)
__bhs_ui2f                                        c:/nxp/mcuxpressoide_11.0.1_2563/ide/plugins/com.nxp.mcuxpresso.tools.win32_11.0.1.201907311258/tools/bin/../lib/gcc/arm-none-eabi/8.2.1/thumb/v7e-m+fp/hard\libcr_eabihelpers.a(float.o)
__bhs_ul2d                                        c:/nxp/mcuxpressoide_11.0.1_2563/ide/plugins/com.nxp.mcuxpresso.tools.win32_11.0.1.201907311258/tools/bin/../lib/gcc/arm-none-eabi/8.2.1/thumb/v7e-m+fp/hard\libcr_eabihelpers.a(double.o)
__bhs_ul2f                                        c:/nxp/mcuxpressoide_11.0.1_2563/ide/plugins/com.nxp.mcuxpresso.tools.win32_11.0.1.201907311258/tools/bin/../lib/gcc/arm-none-eabi/8.2.1/thumb/v7e-m+fp/hard\libcr_eabihelpers.a(float.o)
__bss_section_table_end                           ./startup/startup_mimxrt1011.o
__check_heap_overflow                             c:/nxp/mcuxpressoide_11.0.1_2563/ide/plugins/com.nxp.mcuxpresso.tools.win32_11.0.1.201907311258/tools/bin/../lib/gcc/arm-none-eabi/8.2.1/../../../../arm-none-eabi/lib/thumb/v7e-m+fp/hard\libcr_c.a(_cr_check_heap.o)
                                                  c:/nxp/mcuxpressoide_11.0.1_2563/ide/plugins/com.nxp.mcuxpresso.tools.win32_11.0.1.201907311258/tools/bin/../lib/gcc/arm-none-eabi/8.2.1/../../../../arm-none-eabi/lib/thumb/v7e-m+fp/hard\libcr_c.a(_cr_sbrk.o)
__data_section_table                              ./startup/startup_mimxrt1011.o
__data_section_table_end                          ./startup/startup_mimxrt1011.o
__end_of_heap                                     c:/nxp/mcuxpressoide_11.0.1_2563/ide/plugins/com.nxp.mcuxpresso.tools.win32_11.0.1.201907311258/tools/bin/../lib/gcc/arm-none-eabi/8.2.1/../../../../arm-none-eabi/lib/thumb/v7e-m+fp/hard\libcr_c.a(__init_alloc.o)
                                                  c:/nxp/mcuxpressoide_11.0.1_2563/ide/plugins/com.nxp.mcuxpresso.tools.win32_11.0.1.201907311258/tools/bin/../lib/gcc/arm-none-eabi/8.2.1/../../../../arm-none-eabi/lib/thumb/v7e-m+fp/hard\libcr_c.a(_cr_sbrk.o)
__exit                                            c:/nxp/mcuxpressoide_11.0.1_2563/ide/plugins/com.nxp.mcuxpresso.tools.win32_11.0.1.201907311258/tools/bin/../lib/gcc/arm-none-eabi/8.2.1/../../../../arm-none-eabi/lib/thumb/v7e-m+fp/hard\libcr_semihost_nf.a(__sys_appexit.o)
__flsbuf                                          c:/nxp/mcuxpressoide_11.0.1_2563/ide/plugins/com.nxp.mcuxpresso.tools.win32_11.0.1.201907311258/tools/bin/../lib/gcc/arm-none-eabi/8.2.1/../../../../arm-none-eabi/lib/thumb/v7e-m+fp/hard\libcr_c.a(_deferredlazyseek.o)
                                                  c:/nxp/mcuxpressoide_11.0.1_2563/ide/plugins/com.nxp.mcuxpresso.tools.win32_11.0.1.201907311258/tools/bin/../lib/gcc/arm-none-eabi/8.2.1/../../../../arm-none-eabi/lib/thumb/v7e-m+fp/hard\libcr_c.a(printf.o)
__heaps                                           c:/nxp/mcuxpressoide_11.0.1_2563/ide/plugins/com.nxp.mcuxpresso.tools.win32_11.0.1.201907311258/tools/bin/../lib/gcc/arm-none-eabi/8.2.1/../../../../arm-none-eabi/lib/thumb/v7e-m+fp/hard\libcr_c.a(__init_alloc.o)
                                                  c:/nxp/mcuxpressoide_11.0.1_2563/ide/plugins/com.nxp.mcuxpresso.tools.win32_11.0.1.201907311258/tools/bin/../lib/gcc/arm-none-eabi/8.2.1/../../../../arm-none-eabi/lib/thumb/v7e-m+fp/hard\libcr_c.a(alloc.o)
__main                                            c:/nxp/mcuxpressoide_11.0.1_2563/ide/plugins/com.nxp.mcuxpresso.tools.win32_11.0.1.201907311258/tools/bin/../lib/gcc/arm-none-eabi/8.2.1/../../../../arm-none-eabi/lib/thumb/v7e-m+fp/hard\libcr_semihost_nf.a(_cr__main.o)
                                                  ./startup/startup_mimxrt1011.o
__num_Ciob_streams                                c:/nxp/mcuxpressoide_11.0.1_2563/ide/plugins/com.nxp.mcuxpresso.tools.win32_11.0.1.201907311258/tools/bin/../lib/gcc/arm-none-eabi/8.2.1/../../../../arm-none-eabi/lib/thumb/v7e-m+fp/hard\libcr_semihost_nf.a(__ciob.o)
                                                  c:/nxp/mcuxpressoide_11.0.1_2563/ide/plugins/com.nxp.mcuxpresso.tools.win32_11.0.1.201907311258/tools/bin/../lib/gcc/arm-none-eabi/8.2.1/../../../../arm-none-eabi/lib/thumb/v7e-m+fp/hard\libcr_c.a(fflush.o)
                                                  c:/nxp/mcuxpressoide_11.0.1_2563/ide/plugins/com.nxp.mcuxpresso.tools.win32_11.0.1.201907311258/tools/bin/../lib/gcc/arm-none-eabi/8.2.1/../../../../arm-none-eabi/lib/thumb/v7e-m+fp/hard\libcr_c.a(initio.o)
__sys_appexit                                     c:/nxp/mcuxpressoide_11.0.1_2563/ide/plugins/com.nxp.mcuxpresso.tools.win32_11.0.1.201907311258/tools/bin/../lib/gcc/arm-none-eabi/8.2.1/../../../../arm-none-eabi/lib/thumb/v7e-m+fp/hard\libcr_semihost_nf.a(__sys_appexit.o)
                                                  c:/nxp/mcuxpressoide_11.0.1_2563/ide/plugins/com.nxp.mcuxpresso.tools.win32_11.0.1.201907311258/tools/bin/../lib/gcc/arm-none-eabi/8.2.1/../../../../arm-none-eabi/lib/thumb/v7e-m+fp/hard\libcr_c.a(alloc.o)
__sys_close                                       c:/nxp/mcuxpressoide_11.0.1_2563/ide/plugins/com.nxp.mcuxpresso.tools.win32_11.0.1.201907311258/tools/bin/../lib/gcc/arm-none-eabi/8.2.1/../../../../arm-none-eabi/lib/thumb/v7e-m+fp/hard\libcr_semihost_nf.a(__sys_close.o)
                                                  c:/nxp/mcuxpressoide_11.0.1_2563/ide/plugins/com.nxp.mcuxpresso.tools.win32_11.0.1.201907311258/tools/bin/../lib/gcc/arm-none-eabi/8.2.1/../../../../arm-none-eabi/lib/thumb/v7e-m+fp/hard\libcr_c.a(fclose.o)
__sys_flen                                        c:/nxp/mcuxpressoide_11.0.1_2563/ide/plugins/com.nxp.mcuxpresso.tools.win32_11.0.1.201907311258/tools/bin/../lib/gcc/arm-none-eabi/8.2.1/../../../../arm-none-eabi/lib/thumb/v7e-m+fp/hard\libcr_semihost_nf.a(__sys_flen.o)
                                                  c:/nxp/mcuxpressoide_11.0.1_2563/ide/plugins/com.nxp.mcuxpresso.tools.win32_11.0.1.201907311258/tools/bin/../lib/gcc/arm-none-eabi/8.2.1/../../../../arm-none-eabi/lib/thumb/v7e-m+fp/hard\libcr_c.a(fseek.o)
                                                  c:/nxp/mcuxpressoide_11.0.1_2563/ide/plugins/com.nxp.mcuxpresso.tools.win32_11.0.1.201907311258/tools/bin/../lib/gcc/arm-none-eabi/8.2.1/../../../../arm-none-eabi/lib/thumb/v7e-m+fp/hard\libcr_c.a(_writebuf.o)
__sys_istty                                       c:/nxp/mcuxpressoide_11.0.1_2563/ide/plugins/com.nxp.mcuxpresso.tools.win32_11.0.1.201907311258/tools/bin/../lib/gcc/arm-none-eabi/8.2.1/../../../../arm-none-eabi/lib/thumb/v7e-m+fp/hard\libcr_semihost_nf.a(__sys_istty.o)
                                                  c:/nxp/mcuxpressoide_11.0.1_2563/ide/plugins/com.nxp.mcuxpresso.tools.win32_11.0.1.201907311258/tools/bin/../lib/gcc/arm-none-eabi/8.2.1/../../../../arm-none-eabi/lib/thumb/v7e-m+fp/hard\libcr_c.a(fseek.o)
                                                  c:/nxp/mcuxpressoide_11.0.1_2563/ide/plugins/com.nxp.mcuxpresso.tools.win32_11.0.1.201907311258/tools/bin/../lib/gcc/arm-none-eabi/8.2.1/../../../../arm-none-eabi/lib/thumb/v7e-m+fp/hard\libcr_c.a(_deferredlazyseek.o)
__sys_remove                                      c:/nxp/mcuxpressoide_11.0.1_2563/ide/plugins/com.nxp.mcuxpresso.tools.win32_11.0.1.201907311258/tools/bin/../lib/gcc/arm-none-eabi/8.2.1/../../../../arm-none-eabi/lib/thumb/v7e-m+fp/hard\libcr_semihost_nf.a(__sys_remove.o)
                                                  c:/nxp/mcuxpressoide_11.0.1_2563/ide/plugins/com.nxp.mcuxpresso.tools.win32_11.0.1.201907311258/tools/bin/../lib/gcc/arm-none-eabi/8.2.1/../../../../arm-none-eabi/lib/thumb/v7e-m+fp/hard\libcr_c.a(remove.o)
__sys_rename                                      c:/nxp/mcuxpressoide_11.0.1_2563/ide/plugins/com.nxp.mcuxpresso.tools.win32_11.0.1.201907311258/tools/bin/../lib/gcc/arm-none-eabi/8.2.1/../../../../arm-none-eabi/lib/thumb/v7e-m+fp/hard\libcr_semihost_nf.a(__sys_rename.o)
                                                  c:/nxp/mcuxpressoide_11.0.1_2563/ide/plugins/com.nxp.mcuxpresso.tools.win32_11.0.1.201907311258/tools/bin/../lib/gcc/arm-none-eabi/8.2.1/../../../../arm-none-eabi/lib/thumb/v7e-m+fp/hard\libcr_c.a(remove.o)
__sys_seek                                        c:/nxp/mcuxpressoide_11.0.1_2563/ide/plugins/com.nxp.mcuxpresso.tools.win32_11.0.1.201907311258/tools/bin/../lib/gcc/arm-none-eabi/8.2.1/../../../../arm-none-eabi/lib/thumb/v7e-m+fp/hard\libcr_semihost_nf.a(__sys_seek.o)
                                                  c:/nxp/mcuxpressoide_11.0.1_2563/ide/plugins/com.nxp.mcuxpresso.tools.win32_11.0.1.201907311258/tools/bin/../lib/gcc/arm-none-eabi/8.2.1/../../../../arm-none-eabi/lib/thumb/v7e-m+fp/hard\libcr_c.a(_writebuf.o)
__sys_tmpnam                                      c:/nxp/mcuxpressoide_11.0.1_2563/ide/plugins/com.nxp.mcuxpresso.tools.win32_11.0.1.201907311258/tools/bin/../lib/gcc/arm-none-eabi/8.2.1/../../../../arm-none-eabi/lib/thumb/v7e-m+fp/hard\libcr_semihost_nf.a(__sys_tmpnam.o)
                                                  c:/nxp/mcuxpressoide_11.0.1_2563/ide/plugins/com.nxp.mcuxpresso.tools.win32_11.0.1.201907311258/tools/bin/../lib/gcc/arm-none-eabi/8.2.1/../../../../arm-none-eabi/lib/thumb/v7e-m+fp/hard\libcr_c.a(fclose.o)
__sys_write                                       c:/nxp/mcuxpressoide_11.0.1_2563/ide/plugins/com.nxp.mcuxpresso.tools.win32_11.0.1.201907311258/tools/bin/../lib/gcc/arm-none-eabi/8.2.1/../../../../arm-none-eabi/lib/thumb/v7e-m+fp/hard\libcr_semihost_nf.a(__sys_write.o)
                                                  c:/nxp/mcuxpressoide_11.0.1_2563/ide/plugins/com.nxp.mcuxpresso.tools.win32_11.0.1.201907311258/tools/bin/../lib/gcc/arm-none-eabi/8.2.1/../../../../arm-none-eabi/lib/thumb/v7e-m+fp/hard\libcr_c.a(_writebuf.o)
                                                  c:/nxp/mcuxpressoide_11.0.1_2563/ide/plugins/com.nxp.mcuxpresso.tools.win32_11.0.1.201907311258/tools/bin/../lib/gcc/arm-none-eabi/8.2.1/../../../../arm-none-eabi/lib/thumb/v7e-m+fp/hard\libcr_c.a(printf.o)
                                                  c:/nxp/mcuxpressoide_11.0.1_2563/ide/plugins/com.nxp.mcuxpresso.tools.win32_11.0.1.201907311258/tools/bin/../lib/gcc/arm-none-eabi/8.2.1/../../../../arm-none-eabi/lib/thumb/v7e-m+fp/hard\libcr_c.a(alloc.o)
__top_NCACHE_REGION                               ./board/board.o
__vfprintf                                        c:/nxp/mcuxpressoide_11.0.1_2563/ide/plugins/com.nxp.mcuxpresso.tools.win32_11.0.1.201907311258/tools/bin/../lib/gcc/arm-none-eabi/8.2.1/../../../../arm-none-eabi/lib/thumb/v7e-m+fp/hard\libcr_c.a(printf.o)
_deferredlazyseek                                 c:/nxp/mcuxpressoide_11.0.1_2563/ide/plugins/com.nxp.mcuxpresso.tools.win32_11.0.1.201907311258/tools/bin/../lib/gcc/arm-none-eabi/8.2.1/../../../../arm-none-eabi/lib/thumb/v7e-m+fp/hard\libcr_c.a(_deferredlazyseek.o)
                                                  c:/nxp/mcuxpressoide_11.0.1_2563/ide/plugins/com.nxp.mcuxpresso.tools.win32_11.0.1.201907311258/tools/bin/../lib/gcc/arm-none-eabi/8.2.1/../../../../arm-none-eabi/lib/thumb/v7e-m+fp/hard\libcr_c.a(_do_fflush.o)
_do_fflush                                        c:/nxp/mcuxpressoide_11.0.1_2563/ide/plugins/com.nxp.mcuxpresso.tools.win32_11.0.1.201907311258/tools/bin/../lib/gcc/arm-none-eabi/8.2.1/../../../../arm-none-eabi/lib/thumb/v7e-m+fp/hard\libcr_c.a(_do_fflush.o)
                                                  c:/nxp/mcuxpressoide_11.0.1_2563/ide/plugins/com.nxp.mcuxpresso.tools.win32_11.0.1.201907311258/tools/bin/../lib/gcc/arm-none-eabi/8.2.1/../../../../arm-none-eabi/lib/thumb/v7e-m+fp/hard\libcr_c.a(fflush.o)
_fdopen                                           c:/nxp/mcuxpressoide_11.0.1_2563/ide/plugins/com.nxp.mcuxpresso.tools.win32_11.0.1.201907311258/tools/bin/../lib/gcc/arm-none-eabi/8.2.1/../../../../arm-none-eabi/lib/thumb/v7e-m+fp/hard\libcr_c.a(_fdopen.o)
                                                  c:/nxp/mcuxpressoide_11.0.1_2563/ide/plugins/com.nxp.mcuxpresso.tools.win32_11.0.1.201907311258/tools/bin/../lib/gcc/arm-none-eabi/8.2.1/../../../../arm-none-eabi/lib/thumb/v7e-m+fp/hard\libcr_c.a(initio.o)
_fflush                                           c:/nxp/mcuxpressoide_11.0.1_2563/ide/plugins/com.nxp.mcuxpresso.tools.win32_11.0.1.201907311258/tools/bin/../lib/gcc/arm-none-eabi/8.2.1/../../../../arm-none-eabi/lib/thumb/v7e-m+fp/hard\libcr_c.a(_fflush.o)
                                                  c:/nxp/mcuxpressoide_11.0.1_2563/ide/plugins/com.nxp.mcuxpresso.tools.win32_11.0.1.201907311258/tools/bin/../lib/gcc/arm-none-eabi/8.2.1/../../../../arm-none-eabi/lib/thumb/v7e-m+fp/hard\libcr_c.a(_do_fflush.o)
                                                  c:/nxp/mcuxpressoide_11.0.1_2563/ide/plugins/com.nxp.mcuxpresso.tools.win32_11.0.1.201907311258/tools/bin/../lib/gcc/arm-none-eabi/8.2.1/../../../../arm-none-eabi/lib/thumb/v7e-m+fp/hard\libcr_c.a(_deferredlazyseek.o)
_fprintf                                          c:/nxp/mcuxpressoide_11.0.1_2563/ide/plugins/com.nxp.mcuxpresso.tools.win32_11.0.1.201907311258/tools/bin/../lib/gcc/arm-none-eabi/8.2.1/../../../../arm-none-eabi/lib/thumb/v7e-m+fp/hard\libcr_c.a(printf.o)
_init_alloc                                       c:/nxp/mcuxpressoide_11.0.1_2563/ide/plugins/com.nxp.mcuxpresso.tools.win32_11.0.1.201907311258/tools/bin/../lib/gcc/arm-none-eabi/8.2.1/../../../../arm-none-eabi/lib/thumb/v7e-m+fp/hard\libcr_c.a(__init_alloc.o)
_initio                                           c:/nxp/mcuxpressoide_11.0.1_2563/ide/plugins/com.nxp.mcuxpresso.tools.win32_11.0.1.201907311258/tools/bin/../lib/gcc/arm-none-eabi/8.2.1/../../../../arm-none-eabi/lib/thumb/v7e-m+fp/hard\libcr_c.a(initio.o)
                                                  c:/nxp/mcuxpressoide_11.0.1_2563/ide/plugins/com.nxp.mcuxpresso.tools.win32_11.0.1.201907311258/tools/bin/../lib/gcc/arm-none-eabi/8.2.1/../../../../arm-none-eabi/lib/thumb/v7e-m+fp/hard\libcr_semihost_nf.a(_cr__main.o)
_printf                                           c:/nxp/mcuxpressoide_11.0.1_2563/ide/plugins/com.nxp.mcuxpresso.tools.win32_11.0.1.201907311258/tools/bin/../lib/gcc/arm-none-eabi/8.2.1/../../../../arm-none-eabi/lib/thumb/v7e-m+fp/hard\libcr_c.a(printf.o)
                                                  ./source/usbmidi.o
                                                  ./source/speakEZ.o
                                                  ./usb/host/usb_host_devices.o
                                                  ./usb/host/class/usb_host_cdc.o
_printf_char                                      c:/nxp/mcuxpressoide_11.0.1_2563/ide/plugins/com.nxp.mcuxpresso.tools.win32_11.0.1.201907311258/tools/bin/../lib/gcc/arm-none-eabi/8.2.1/../../../../arm-none-eabi/lib/thumb/v7e-m+fp/hard\libcr_c.a(printf.o)
_pvHeapLimit                                      c:/nxp/mcuxpressoide_11.0.1_2563/ide/plugins/com.nxp.mcuxpresso.tools.win32_11.0.1.201907311258/tools/bin/../lib/gcc/arm-none-eabi/8.2.1/../../../../arm-none-eabi/lib/thumb/v7e-m+fp/hard\libcr_c.a(_cr_check_heap.o)
_pvHeapStart                                      c:/nxp/mcuxpressoide_11.0.1_2563/ide/plugins/com.nxp.mcuxpresso.tools.win32_11.0.1.201907311258/tools/bin/../lib/gcc/arm-none-eabi/8.2.1/../../../../arm-none-eabi/lib/thumb/v7e-m+fp/hard\libcr_c.a(_cr_sbrk.o)
_sbrk                                             c:/nxp/mcuxpressoide_11.0.1_2563/ide/plugins/com.nxp.mcuxpresso.tools.win32_11.0.1.201907311258/tools/bin/../lib/gcc/arm-none-eabi/8.2.1/../../../../arm-none-eabi/lib/thumb/v7e-m+fp/hard\libcr_c.a(_cr_sbrk.o)
                                                  c:/nxp/mcuxpressoide_11.0.1_2563/ide/plugins/com.nxp.mcuxpresso.tools.win32_11.0.1.201907311258/tools/bin/../lib/gcc/arm-none-eabi/8.2.1/../../../../arm-none-eabi/lib/thumb/v7e-m+fp/hard\libcr_c.a(alloc.o)
_snprintf                                         c:/nxp/mcuxpressoide_11.0.1_2563/ide/plugins/com.nxp.mcuxpresso.tools.win32_11.0.1.201907311258/tools/bin/../lib/gcc/arm-none-eabi/8.2.1/../../../../arm-none-eabi/lib/thumb/v7e-m+fp/hard\libcr_c.a(printf.o)
_sprintf                                          c:/nxp/mcuxpressoide_11.0.1_2563/ide/plugins/com.nxp.mcuxpresso.tools.win32_11.0.1.201907311258/tools/bin/../lib/gcc/arm-none-eabi/8.2.1/../../../../arm-none-eabi/lib/thumb/v7e-m+fp/hard\libcr_c.a(printf.o)
_terminateio                                      c:/nxp/mcuxpressoide_11.0.1_2563/ide/plugins/com.nxp.mcuxpresso.tools.win32_11.0.1.201907311258/tools/bin/../lib/gcc/arm-none-eabi/8.2.1/../../../../arm-none-eabi/lib/thumb/v7e-m+fp/hard\libcr_c.a(initio.o)
_vStackTop                                        ./startup/startup_mimxrt1011.o
_vfprintf                                         c:/nxp/mcuxpressoide_11.0.1_2563/ide/plugins/com.nxp.mcuxpresso.tools.win32_11.0.1.201907311258/tools/bin/../lib/gcc/arm-none-eabi/8.2.1/../../../../arm-none-eabi/lib/thumb/v7e-m+fp/hard\libcr_c.a(printf.o)
_vprintf                                          c:/nxp/mcuxpressoide_11.0.1_2563/ide/plugins/com.nxp.mcuxpresso.tools.win32_11.0.1.201907311258/tools/bin/../lib/gcc/arm-none-eabi/8.2.1/../../../../arm-none-eabi/lib/thumb/v7e-m+fp/hard\libcr_c.a(printf.o)
_vsnprintf                                        c:/nxp/mcuxpressoide_11.0.1_2563/ide/plugins/com.nxp.mcuxpresso.tools.win32_11.0.1.201907311258/tools/bin/../lib/gcc/arm-none-eabi/8.2.1/../../../../arm-none-eabi/lib/thumb/v7e-m+fp/hard\libcr_c.a(printf.o)
_vsprintf                                         c:/nxp/mcuxpressoide_11.0.1_2563/ide/plugins/com.nxp.mcuxpresso.tools.win32_11.0.1.201907311258/tools/bin/../lib/gcc/arm-none-eabi/8.2.1/../../../../arm-none-eabi/lib/thumb/v7e-m+fp/hard\libcr_c.a(printf.o)
analysisBiquadAbs                                 ./source/speakEZ.o
analysisBiquadBWs                                 ./source/speakEZ.o
analysisBiquadInputs                              ./source/speakEZ.o
analysisBiquadOutputs                             ./source/speakEZ.o
armBitRevIndexTable1024                           F:\Dropbox\Hardware Development\MCUXpresso\11.0.1\workspace\speakEZ\libs\libarm_cortexM7lfsp_math.a(arm_common_tables.o)
armBitRevIndexTable128                            F:\Dropbox\Hardware Development\MCUXpresso\11.0.1\workspace\speakEZ\libs\libarm_cortexM7lfsp_math.a(arm_common_tables.o)
armBitRevIndexTable16                             F:\Dropbox\Hardware Development\MCUXpresso\11.0.1\workspace\speakEZ\libs\libarm_cortexM7lfsp_math.a(arm_common_tables.o)
armBitRevIndexTable2048                           F:\Dropbox\Hardware Development\MCUXpresso\11.0.1\workspace\speakEZ\libs\libarm_cortexM7lfsp_math.a(arm_common_tables.o)
armBitRevIndexTable256                            F:\Dropbox\Hardware Development\MCUXpresso\11.0.1\workspace\speakEZ\libs\libarm_cortexM7lfsp_math.a(arm_common_tables.o)
armBitRevIndexTable32                             F:\Dropbox\Hardware Development\MCUXpresso\11.0.1\workspace\speakEZ\libs\libarm_cortexM7lfsp_math.a(arm_common_tables.o)
armBitRevIndexTable4096                           F:\Dropbox\Hardware Development\MCUXpresso\11.0.1\workspace\speakEZ\libs\libarm_cortexM7lfsp_math.a(arm_common_tables.o)
armBitRevIndexTable512                            F:\Dropbox\Hardware Development\MCUXpresso\11.0.1\workspace\speakEZ\libs\libarm_cortexM7lfsp_math.a(arm_common_tables.o)
armBitRevIndexTable64                             F:\Dropbox\Hardware Development\MCUXpresso\11.0.1\workspace\speakEZ\libs\libarm_cortexM7lfsp_math.a(arm_common_tables.o)
armBitRevIndexTable_fixed_1024                    F:\Dropbox\Hardware Development\MCUXpresso\11.0.1\workspace\speakEZ\libs\libarm_cortexM7lfsp_math.a(arm_common_tables.o)
armBitRevIndexTable_fixed_128                     F:\Dropbox\Hardware Development\MCUXpresso\11.0.1\workspace\speakEZ\libs\libarm_cortexM7lfsp_math.a(arm_common_tables.o)
armBitRevIndexTable_fixed_16                      F:\Dropbox\Hardware Development\MCUXpresso\11.0.1\workspace\speakEZ\libs\libarm_cortexM7lfsp_math.a(arm_common_tables.o)
armBitRevIndexTable_fixed_2048                    F:\Dropbox\Hardware Development\MCUXpresso\11.0.1\workspace\speakEZ\libs\libarm_cortexM7lfsp_math.a(arm_common_tables.o)
armBitRevIndexTable_fixed_256                     F:\Dropbox\Hardware Development\MCUXpresso\11.0.1\workspace\speakEZ\libs\libarm_cortexM7lfsp_math.a(arm_common_tables.o)
armBitRevIndexTable_fixed_32                      F:\Dropbox\Hardware Development\MCUXpresso\11.0.1\workspace\speakEZ\libs\libarm_cortexM7lfsp_math.a(arm_common_tables.o)
armBitRevIndexTable_fixed_4096                    F:\Dropbox\Hardware Development\MCUXpresso\11.0.1\workspace\speakEZ\libs\libarm_cortexM7lfsp_math.a(arm_common_tables.o)
armBitRevIndexTable_fixed_512                     F:\Dropbox\Hardware Development\MCUXpresso\11.0.1\workspace\speakEZ\libs\libarm_cortexM7lfsp_math.a(arm_common_tables.o)
armBitRevIndexTable_fixed_64                      F:\Dropbox\Hardware Development\MCUXpresso\11.0.1\workspace\speakEZ\libs\libarm_cortexM7lfsp_math.a(arm_common_tables.o)
armBitRevTable                                    F:\Dropbox\Hardware Development\MCUXpresso\11.0.1\workspace\speakEZ\libs\libarm_cortexM7lfsp_math.a(arm_common_tables.o)
armRecipTableQ15                                  F:\Dropbox\Hardware Development\MCUXpresso\11.0.1\workspace\speakEZ\libs\libarm_cortexM7lfsp_math.a(arm_common_tables.o)
armRecipTableQ31                                  F:\Dropbox\Hardware Development\MCUXpresso\11.0.1\workspace\speakEZ\libs\libarm_cortexM7lfsp_math.a(arm_common_tables.o)
arm_cos_f32                                       F:\Dropbox\Hardware Development\MCUXpresso\11.0.1\workspace\speakEZ\libs\libarm_cortexM7lfsp_math.a(arm_cos_f32.o)
                                                  ./source/speakEZ.o
arm_sin_f32                                       F:\Dropbox\Hardware Development\MCUXpresso\11.0.1\workspace\speakEZ\libs\libarm_cortexM7lfsp_math.a(arm_sin_f32.o)
                                                  ./source/speakEZ.o
bandpassBiquadF0                                  ./source/speakEZ.o
boot_data                                         ./xip/fsl_flexspi_nor_boot.o
bss_init                                          ./startup/startup_mimxrt1011.o
calculateBiquadCoeffs                             ./source/speakEZ.o
calloc                                            c:/nxp/mcuxpressoide_11.0.1_2563/ide/plugins/com.nxp.mcuxpresso.tools.win32_11.0.1.201907311258/tools/bin/../lib/gcc/arm-none-eabi/8.2.1/../../../../arm-none-eabi/lib/thumb/v7e-m+fp/hard\libcr_c.a(alloc.o)
clearSAI_RequestSynthUpdate                       ./source/speakEZ.o
configureWM8960                                   ./source/speakEZ.o
data_init                                         ./startup/startup_mimxrt1011.o
demoChords                                        ./source/speakEZ.o
enetPllConfig_BOARD_BootClockRUN                  ./board/clock_config.o
envelopeFollowerInputs                            ./source/speakEZ.o
envelopeFollowerOutputs                           ./source/speakEZ.o
envelopeFollowerQ                                 ./source/speakEZ.o
errno                                             c:/nxp/mcuxpressoide_11.0.1_2563/ide/plugins/com.nxp.mcuxpresso.tools.win32_11.0.1.201907311258/tools/bin/../lib/gcc/arm-none-eabi/8.2.1/../../../../arm-none-eabi/lib/thumb/v7e-m+fp/hard\libcr_c.a(errno.o)
                                                  c:/nxp/mcuxpressoide_11.0.1_2563/ide/plugins/com.nxp.mcuxpresso.tools.win32_11.0.1.201907311258/tools/bin/../lib/gcc/arm-none-eabi/8.2.1/../../../../arm-none-eabi/lib/thumb/v7e-m+fp/hard\libcr_c.a(ftell.o)
                                                  c:/nxp/mcuxpressoide_11.0.1_2563/ide/plugins/com.nxp.mcuxpresso.tools.win32_11.0.1.201907311258/tools/bin/../lib/gcc/arm-none-eabi/8.2.1/../../../../arm-none-eabi/lib/thumb/v7e-m+fp/hard\libcr_c.a(_cr_sbrk.o)
                                                  c:/nxp/mcuxpressoide_11.0.1_2563/ide/plugins/com.nxp.mcuxpresso.tools.win32_11.0.1.201907311258/tools/bin/../lib/gcc/arm-none-eabi/8.2.1/../../../../arm-none-eabi/lib/thumb/v7e-m+fp/hard\libcr_c.a(ldexpf.o)
                                                  c:/nxp/mcuxpressoide_11.0.1_2563/ide/plugins/com.nxp.mcuxpresso.tools.win32_11.0.1.201907311258/tools/bin/../lib/gcc/arm-none-eabi/8.2.1/../../../../arm-none-eabi/lib/thumb/v7e-m+fp/hard\libcr_c.a(expf.o)
                                                  c:/nxp/mcuxpressoide_11.0.1_2563/ide/plugins/com.nxp.mcuxpresso.tools.win32_11.0.1.201907311258/tools/bin/../lib/gcc/arm-none-eabi/8.2.1/../../../../arm-none-eabi/lib/thumb/v7e-m+fp/hard\libcr_c.a(sinhf.o)
                                                  c:/nxp/mcuxpressoide_11.0.1_2563/ide/plugins/com.nxp.mcuxpresso.tools.win32_11.0.1.201907311258/tools/bin/../lib/gcc/arm-none-eabi/8.2.1/../../../../arm-none-eabi/lib/thumb/v7e-m+fp/hard\libcr_c.a(powf.o)
                                                  c:/nxp/mcuxpressoide_11.0.1_2563/ide/plugins/com.nxp.mcuxpresso.tools.win32_11.0.1.201907311258/tools/bin/../lib/gcc/arm-none-eabi/8.2.1/../../../../arm-none-eabi/lib/thumb/v7e-m+fp/hard\libcr_c.a(logf.o)
expf                                              c:/nxp/mcuxpressoide_11.0.1_2563/ide/plugins/com.nxp.mcuxpresso.tools.win32_11.0.1.201907311258/tools/bin/../lib/gcc/arm-none-eabi/8.2.1/../../../../arm-none-eabi/lib/thumb/v7e-m+fp/hard\libcr_c.a(expf.o)
                                                  c:/nxp/mcuxpressoide_11.0.1_2563/ide/plugins/com.nxp.mcuxpresso.tools.win32_11.0.1.201907311258/tools/bin/../lib/gcc/arm-none-eabi/8.2.1/../../../../arm-none-eabi/lib/thumb/v7e-m+fp/hard\libcr_c.a(sinhf.o)
fabsf                                             c:/nxp/mcuxpressoide_11.0.1_2563/ide/plugins/com.nxp.mcuxpresso.tools.win32_11.0.1.201907311258/tools/bin/../lib/gcc/arm-none-eabi/8.2.1/../../../../arm-none-eabi/lib/thumb/v7e-m+fp/hard\libcr_c.a(fabsf.o)
                                                  c:/nxp/mcuxpressoide_11.0.1_2563/ide/plugins/com.nxp.mcuxpresso.tools.win32_11.0.1.201907311258/tools/bin/../lib/gcc/arm-none-eabi/8.2.1/../../../../arm-none-eabi/lib/thumb/v7e-m+fp/hard\libcr_c.a(expf.o)
                                                  ./source/speakEZ.o
fclose                                            c:/nxp/mcuxpressoide_11.0.1_2563/ide/plugins/com.nxp.mcuxpresso.tools.win32_11.0.1.201907311258/tools/bin/../lib/gcc/arm-none-eabi/8.2.1/../../../../arm-none-eabi/lib/thumb/v7e-m+fp/hard\libcr_c.a(fclose.o)
                                                  c:/nxp/mcuxpressoide_11.0.1_2563/ide/plugins/com.nxp.mcuxpresso.tools.win32_11.0.1.201907311258/tools/bin/../lib/gcc/arm-none-eabi/8.2.1/../../../../arm-none-eabi/lib/thumb/v7e-m+fp/hard\libcr_c.a(_fdopen.o)
                                                  c:/nxp/mcuxpressoide_11.0.1_2563/ide/plugins/com.nxp.mcuxpresso.tools.win32_11.0.1.201907311258/tools/bin/../lib/gcc/arm-none-eabi/8.2.1/../../../../arm-none-eabi/lib/thumb/v7e-m+fp/hard\libcr_c.a(initio.o)
fflush                                            c:/nxp/mcuxpressoide_11.0.1_2563/ide/plugins/com.nxp.mcuxpresso.tools.win32_11.0.1.201907311258/tools/bin/../lib/gcc/arm-none-eabi/8.2.1/../../../../arm-none-eabi/lib/thumb/v7e-m+fp/hard\libcr_c.a(fflush.o)
                                                  c:/nxp/mcuxpressoide_11.0.1_2563/ide/plugins/com.nxp.mcuxpresso.tools.win32_11.0.1.201907311258/tools/bin/../lib/gcc/arm-none-eabi/8.2.1/../../../../arm-none-eabi/lib/thumb/v7e-m+fp/hard\libcr_c.a(fclose.o)
free                                              c:/nxp/mcuxpressoide_11.0.1_2563/ide/plugins/com.nxp.mcuxpresso.tools.win32_11.0.1.201907311258/tools/bin/../lib/gcc/arm-none-eabi/8.2.1/../../../../arm-none-eabi/lib/thumb/v7e-m+fp/hard\libcr_c.a(alloc.o)
                                                  c:/nxp/mcuxpressoide_11.0.1_2563/ide/plugins/com.nxp.mcuxpresso.tools.win32_11.0.1.201907311258/tools/bin/../lib/gcc/arm-none-eabi/8.2.1/../../../../arm-none-eabi/lib/thumb/v7e-m+fp/hard\libcr_c.a(fclose.o)
                                                  c:/nxp/mcuxpressoide_11.0.1_2563/ide/plugins/com.nxp.mcuxpresso.tools.win32_11.0.1.201907311258/tools/bin/../lib/gcc/arm-none-eabi/8.2.1/../../../../arm-none-eabi/lib/thumb/v7e-m+fp/hard\libcr_c.a(printf.o)
                                                  ./drivers/fsl_common.o
                                                  ./osa/usb_osa_bm.o
frexpf                                            c:/nxp/mcuxpressoide_11.0.1_2563/ide/plugins/com.nxp.mcuxpresso.tools.win32_11.0.1.201907311258/tools/bin/../lib/gcc/arm-none-eabi/8.2.1/../../../../arm-none-eabi/lib/thumb/v7e-m+fp/hard\libcr_c.a(frexpf.o)
                                                  c:/nxp/mcuxpressoide_11.0.1_2563/ide/plugins/com.nxp.mcuxpresso.tools.win32_11.0.1.201907311258/tools/bin/../lib/gcc/arm-none-eabi/8.2.1/../../../../arm-none-eabi/lib/thumb/v7e-m+fp/hard\libcr_c.a(powf.o)
                                                  c:/nxp/mcuxpressoide_11.0.1_2563/ide/plugins/com.nxp.mcuxpresso.tools.win32_11.0.1.201907311258/tools/bin/../lib/gcc/arm-none-eabi/8.2.1/../../../../arm-none-eabi/lib/thumb/v7e-m+fp/hard\libcr_c.a(logf.o)
fseek                                             c:/nxp/mcuxpressoide_11.0.1_2563/ide/plugins/com.nxp.mcuxpresso.tools.win32_11.0.1.201907311258/tools/bin/../lib/gcc/arm-none-eabi/8.2.1/../../../../arm-none-eabi/lib/thumb/v7e-m+fp/hard\libcr_c.a(fseek.o)
                                                  c:/nxp/mcuxpressoide_11.0.1_2563/ide/plugins/com.nxp.mcuxpresso.tools.win32_11.0.1.201907311258/tools/bin/../lib/gcc/arm-none-eabi/8.2.1/../../../../arm-none-eabi/lib/thumb/v7e-m+fp/hard\libcr_c.a(_do_fflush.o)
                                                  c:/nxp/mcuxpressoide_11.0.1_2563/ide/plugins/com.nxp.mcuxpresso.tools.win32_11.0.1.201907311258/tools/bin/../lib/gcc/arm-none-eabi/8.2.1/../../../../arm-none-eabi/lib/thumb/v7e-m+fp/hard\libcr_c.a(_fdopen.o)
                                                  c:/nxp/mcuxpressoide_11.0.1_2563/ide/plugins/com.nxp.mcuxpresso.tools.win32_11.0.1.201907311258/tools/bin/../lib/gcc/arm-none-eabi/8.2.1/../../../../arm-none-eabi/lib/thumb/v7e-m+fp/hard\libcr_c.a(_deferredlazyseek.o)
ftell                                             c:/nxp/mcuxpressoide_11.0.1_2563/ide/plugins/com.nxp.mcuxpresso.tools.win32_11.0.1.201907311258/tools/bin/../lib/gcc/arm-none-eabi/8.2.1/../../../../arm-none-eabi/lib/thumb/v7e-m+fp/hard\libcr_c.a(ftell.o)
                                                  c:/nxp/mcuxpressoide_11.0.1_2563/ide/plugins/com.nxp.mcuxpresso.tools.win32_11.0.1.201907311258/tools/bin/../lib/gcc/arm-none-eabi/8.2.1/../../../../arm-none-eabi/lib/thumb/v7e-m+fp/hard\libcr_c.a(fseek.o)
g_UsbHostInstance                                 ./usb/host/usb_host_hci.o
                                                  ./usb/host/usb_host_devices.o
g_activeDemoChord                                 ./source/speakEZ.o
g_activeWavetable                                 ./source/speakEZ.o
g_demoMidiEventPacket                             ./source/speakEZ.o
                                                  ./source/usbmidi.o
g_demoMidiEventPipeInit                           ./source/speakEZ.o
                                                  ./source/usbmidi.o
g_demoMidiInstance                                ./source/speakEZ.o
                                                  ./source/usbmidi.o
g_demoMidiPacketRecvFlag                          ./source/speakEZ.o
                                                  ./source/usbmidi.o
g_demoUSBHostHandle                               ./source/speakEZ.o
g_pfnVectors                                      ./startup/startup_mimxrt1011.o
                                                  ./device/system_MIMXRT1011.o
g_rtcXtalFreq                                     ./drivers/fsl_clock.o
                                                  ./board/clock_config.o
g_serialHandle                                    ./utilities/fsl_debug_console.o
g_sw4Debounce                                     ./source/speakEZ.o
g_sw4Pressed                                      ./source/speakEZ.o
g_xtalFreq                                        ./drivers/fsl_clock.o
                                                  ./board/clock_config.o
                                                  ./board/board.o
getRxAudio                                        ./source/speakEZ.o
getSAI_RequestSynthUpdate                         ./source/speakEZ.o
getSW4Pressed                                     ./source/speakEZ.o
handleMidiEventPacket                             ./source/speakEZ.o
image_vector_table                                ./xip/fsl_flexspi_nor_boot.o
initSynth                                         ./source/speakEZ.o
inputAudioBuffer                                  ./source/speakEZ.o
ldexpf                                            c:/nxp/mcuxpressoide_11.0.1_2563/ide/plugins/com.nxp.mcuxpresso.tools.win32_11.0.1.201907311258/tools/bin/../lib/gcc/arm-none-eabi/8.2.1/../../../../arm-none-eabi/lib/thumb/v7e-m+fp/hard\libcr_c.a(ldexpf.o)
                                                  c:/nxp/mcuxpressoide_11.0.1_2563/ide/plugins/com.nxp.mcuxpresso.tools.win32_11.0.1.201907311258/tools/bin/../lib/gcc/arm-none-eabi/8.2.1/../../../../arm-none-eabi/lib/thumb/v7e-m+fp/hard\libcr_c.a(expf.o)
                                                  c:/nxp/mcuxpressoide_11.0.1_2563/ide/plugins/com.nxp.mcuxpresso.tools.win32_11.0.1.201907311258/tools/bin/../lib/gcc/arm-none-eabi/8.2.1/../../../../arm-none-eabi/lib/thumb/v7e-m+fp/hard\libcr_c.a(powf.o)
logf                                              c:/nxp/mcuxpressoide_11.0.1_2563/ide/plugins/com.nxp.mcuxpresso.tools.win32_11.0.1.201907311258/tools/bin/../lib/gcc/arm-none-eabi/8.2.1/../../../../arm-none-eabi/lib/thumb/v7e-m+fp/hard\libcr_c.a(logf.o)
                                                  ./source/speakEZ.o
lowpassBiquadInputs                               ./source/speakEZ.o
lowpassBiquadOutputs                              ./source/speakEZ.o
lowpassBiquadQ                                    ./source/speakEZ.o
main                                              ./source/speakEZ.o
                                                  c:/nxp/mcuxpressoide_11.0.1_2563/ide/plugins/com.nxp.mcuxpresso.tools.win32_11.0.1.201907311258/tools/bin/../lib/gcc/arm-none-eabi/8.2.1/../../../../arm-none-eabi/lib/thumb/v7e-m+fp/hard\libcr_semihost_nf.a(_cr__main.o)
malloc                                            c:/nxp/mcuxpressoide_11.0.1_2563/ide/plugins/com.nxp.mcuxpresso.tools.win32_11.0.1.201907311258/tools/bin/../lib/gcc/arm-none-eabi/8.2.1/../../../../arm-none-eabi/lib/thumb/v7e-m+fp/hard\libcr_c.a(alloc.o)
                                                  c:/nxp/mcuxpressoide_11.0.1_2563/ide/plugins/com.nxp.mcuxpresso.tools.win32_11.0.1.201907311258/tools/bin/../lib/gcc/arm-none-eabi/8.2.1/../../../../arm-none-eabi/lib/thumb/v7e-m+fp/hard\libcr_c.a(printf.o)
                                                  ./drivers/fsl_common.o
                                                  ./osa/usb_osa_bm.o
memcpy                                            c:/nxp/mcuxpressoide_11.0.1_2563/ide/plugins/com.nxp.mcuxpresso.tools.win32_11.0.1.201907311258/tools/bin/../lib/gcc/arm-none-eabi/8.2.1/../../../../arm-none-eabi/lib/thumb/v7e-m+fp/hard\libcr_c.a(memcpy.o)
                                                  c:/nxp/mcuxpressoide_11.0.1_2563/ide/plugins/com.nxp.mcuxpresso.tools.win32_11.0.1.201907311258/tools/bin/../lib/gcc/arm-none-eabi/8.2.1/../../../../arm-none-eabi/lib/thumb/v7e-m+fp/hard\libcr_c.a(alloc.o)
                                                  ./codec/fsl_wm8960.o
memset                                            c:/nxp/mcuxpressoide_11.0.1_2563/ide/plugins/com.nxp.mcuxpresso.tools.win32_11.0.1.201907311258/tools/bin/../lib/gcc/arm-none-eabi/8.2.1/../../../../arm-none-eabi/lib/thumb/v7e-m+fp/hard\libcr_c.a(memset.o)
                                                  c:/nxp/mcuxpressoide_11.0.1_2563/ide/plugins/com.nxp.mcuxpresso.tools.win32_11.0.1.201907311258/tools/bin/../lib/gcc/arm-none-eabi/8.2.1/../../../../arm-none-eabi/lib/thumb/v7e-m+fp/hard\libcr_c.a(fclose.o)
                                                  c:/nxp/mcuxpressoide_11.0.1_2563/ide/plugins/com.nxp.mcuxpresso.tools.win32_11.0.1.201907311258/tools/bin/../lib/gcc/arm-none-eabi/8.2.1/../../../../arm-none-eabi/lib/thumb/v7e-m+fp/hard\libcr_c.a(printf.o)
                                                  c:/nxp/mcuxpressoide_11.0.1_2563/ide/plugins/com.nxp.mcuxpresso.tools.win32_11.0.1.201907311258/tools/bin/../lib/gcc/arm-none-eabi/8.2.1/../../../../arm-none-eabi/lib/thumb/v7e-m+fp/hard\libcr_c.a(alloc.o)
                                                  ./component/serial_manager/serial_manager.o
                                                  ./drivers/fsl_sai.o
                                                  ./drivers/fsl_lpuart_edma.o
                                                  ./drivers/fsl_lpuart.o
                                                  ./drivers/fsl_lpi2c_edma.o
                                                  ./drivers/fsl_lpi2c.o
                                                  ./drivers/fsl_edma.o
                                                  ./source/speakEZ.o
                                                  ./utilities/fsl_debug_console.o
outputAudioBuffer                                 ./source/speakEZ.o
playDemoChord                                     ./source/speakEZ.o
playSynth                                         ./source/speakEZ.o
powf                                              c:/nxp/mcuxpressoide_11.0.1_2563/ide/plugins/com.nxp.mcuxpresso.tools.win32_11.0.1.201907311258/tools/bin/../lib/gcc/arm-none-eabi/8.2.1/../../../../arm-none-eabi/lib/thumb/v7e-m+fp/hard\libcr_c.a(powf.o)
                                                  ./source/speakEZ.o
pressKey                                          ./source/speakEZ.o
qspiflash_config                                  ./xip/evkmimxrt1010_flexspi_nor_config.o
realloc                                           c:/nxp/mcuxpressoide_11.0.1_2563/ide/plugins/com.nxp.mcuxpresso.tools.win32_11.0.1.201907311258/tools/bin/../lib/gcc/arm-none-eabi/8.2.1/../../../../arm-none-eabi/lib/thumb/v7e-m+fp/hard\libcr_c.a(alloc.o)
releaseKey                                        ./source/speakEZ.o
remove                                            c:/nxp/mcuxpressoide_11.0.1_2563/ide/plugins/com.nxp.mcuxpresso.tools.win32_11.0.1.201907311258/tools/bin/../lib/gcc/arm-none-eabi/8.2.1/../../../../arm-none-eabi/lib/thumb/v7e-m+fp/hard\libcr_c.a(remove.o)
                                                  c:/nxp/mcuxpressoide_11.0.1_2563/ide/plugins/com.nxp.mcuxpresso.tools.win32_11.0.1.201907311258/tools/bin/../lib/gcc/arm-none-eabi/8.2.1/../../../../arm-none-eabi/lib/thumb/v7e-m+fp/hard\libcr_c.a(fclose.o)
rename                                            c:/nxp/mcuxpressoide_11.0.1_2563/ide/plugins/com.nxp.mcuxpresso.tools.win32_11.0.1.201907311258/tools/bin/../lib/gcc/arm-none-eabi/8.2.1/../../../../arm-none-eabi/lib/thumb/v7e-m+fp/hard\libcr_c.a(remove.o)
runAnalysisBiquad                                 ./source/speakEZ.o
runEnvelopeFollower                               ./source/speakEZ.o
runLowpassBiquad                                  ./source/speakEZ.o
runShapingBiquad                                  ./source/speakEZ.o
runSibilanceBiquad                                ./source/speakEZ.o
setTxAudio                                        ./source/speakEZ.o
setWavetableNovel                                 ./source/speakEZ.o
setWavetableSaw                                   ./source/speakEZ.o
setWavetableSine                                  ./source/speakEZ.o
setWavetableTri                                   ./source/speakEZ.o
setvbuf                                           c:/nxp/mcuxpressoide_11.0.1_2563/ide/plugins/com.nxp.mcuxpresso.tools.win32_11.0.1.201907311258/tools/bin/../lib/gcc/arm-none-eabi/8.2.1/../../../../arm-none-eabi/lib/thumb/v7e-m+fp/hard\libcr_c.a(setvbuf.o)
                                                  c:/nxp/mcuxpressoide_11.0.1_2563/ide/plugins/com.nxp.mcuxpresso.tools.win32_11.0.1.201907311258/tools/bin/../lib/gcc/arm-none-eabi/8.2.1/../../../../arm-none-eabi/lib/thumb/v7e-m+fp/hard\libcr_c.a(initio.o)
shapingBiquadBWs                                  ./source/speakEZ.o
shapingBiquadInputs                               ./source/speakEZ.o
shapingBiquadOutputs                              ./source/speakEZ.o
sibilanceBiquadInputs                             ./source/speakEZ.o
sibilanceBiquadOutputs                            ./source/speakEZ.o
sibilanceBiquadQ                                  ./source/speakEZ.o
sinTable_f32                                      F:\Dropbox\Hardware Development\MCUXpresso\11.0.1\workspace\speakEZ\libs\libarm_cortexM7lfsp_math.a(arm_common_tables.o)
                                                  F:\Dropbox\Hardware Development\MCUXpresso\11.0.1\workspace\speakEZ\libs\libarm_cortexM7lfsp_math.a(arm_cos_f32.o)
                                                  F:\Dropbox\Hardware Development\MCUXpresso\11.0.1\workspace\speakEZ\libs\libarm_cortexM7lfsp_math.a(arm_sin_f32.o)
sinTable_q15                                      F:\Dropbox\Hardware Development\MCUXpresso\11.0.1\workspace\speakEZ\libs\libarm_cortexM7lfsp_math.a(arm_common_tables.o)
sinTable_q31                                      F:\Dropbox\Hardware Development\MCUXpresso\11.0.1\workspace\speakEZ\libs\libarm_cortexM7lfsp_math.a(arm_common_tables.o)
sinhf                                             c:/nxp/mcuxpressoide_11.0.1_2563/ide/plugins/com.nxp.mcuxpresso.tools.win32_11.0.1.201907311258/tools/bin/../lib/gcc/arm-none-eabi/8.2.1/../../../../arm-none-eabi/lib/thumb/v7e-m+fp/hard\libcr_c.a(sinhf.o)
                                                  ./source/speakEZ.o
strlen                                            c:/nxp/mcuxpressoide_11.0.1_2563/ide/plugins/com.nxp.mcuxpresso.tools.win32_11.0.1.201907311258/tools/bin/../lib/gcc/arm-none-eabi/8.2.1/../../../../arm-none-eabi/lib/thumb/v7e-m+fp/hard\libcr_c.a(strlen.o)
                                                  c:/nxp/mcuxpressoide_11.0.1_2563/ide/plugins/com.nxp.mcuxpresso.tools.win32_11.0.1.201907311258/tools/bin/../lib/gcc/arm-none-eabi/8.2.1/../../../../arm-none-eabi/lib/thumb/v7e-m+fp/hard\libcr_c.a(remove.o)
                                                  c:/nxp/mcuxpressoide_11.0.1_2563/ide/plugins/com.nxp.mcuxpresso.tools.win32_11.0.1.201907311258/tools/bin/../lib/gcc/arm-none-eabi/8.2.1/../../../../arm-none-eabi/lib/thumb/v7e-m+fp/hard\libcr_c.a(printf.o)
                                                  ./utilities/fsl_str.o
sysPllConfig_BOARD_BootClockRUN                   ./board/clock_config.o
tcdSetRxClearTxDMA                                ./drivers/fsl_lpi2c_edma.o
toggleActiveWavetable                             ./source/speakEZ.o
toggleDemoChord                                   ./source/speakEZ.o
twiddleCoef_1024                                  F:\Dropbox\Hardware Development\MCUXpresso\11.0.1\workspace\speakEZ\libs\libarm_cortexM7lfsp_math.a(arm_common_tables.o)
twiddleCoef_1024_q15                              F:\Dropbox\Hardware Development\MCUXpresso\11.0.1\workspace\speakEZ\libs\libarm_cortexM7lfsp_math.a(arm_common_tables.o)
twiddleCoef_1024_q31                              F:\Dropbox\Hardware Development\MCUXpresso\11.0.1\workspace\speakEZ\libs\libarm_cortexM7lfsp_math.a(arm_common_tables.o)
twiddleCoef_128                                   F:\Dropbox\Hardware Development\MCUXpresso\11.0.1\workspace\speakEZ\libs\libarm_cortexM7lfsp_math.a(arm_common_tables.o)
twiddleCoef_128_q15                               F:\Dropbox\Hardware Development\MCUXpresso\11.0.1\workspace\speakEZ\libs\libarm_cortexM7lfsp_math.a(arm_common_tables.o)
twiddleCoef_128_q31                               F:\Dropbox\Hardware Development\MCUXpresso\11.0.1\workspace\speakEZ\libs\libarm_cortexM7lfsp_math.a(arm_common_tables.o)
twiddleCoef_16                                    F:\Dropbox\Hardware Development\MCUXpresso\11.0.1\workspace\speakEZ\libs\libarm_cortexM7lfsp_math.a(arm_common_tables.o)
twiddleCoef_16_q15                                F:\Dropbox\Hardware Development\MCUXpresso\11.0.1\workspace\speakEZ\libs\libarm_cortexM7lfsp_math.a(arm_common_tables.o)
twiddleCoef_16_q31                                F:\Dropbox\Hardware Development\MCUXpresso\11.0.1\workspace\speakEZ\libs\libarm_cortexM7lfsp_math.a(arm_common_tables.o)
twiddleCoef_2048                                  F:\Dropbox\Hardware Development\MCUXpresso\11.0.1\workspace\speakEZ\libs\libarm_cortexM7lfsp_math.a(arm_common_tables.o)
twiddleCoef_2048_q15                              F:\Dropbox\Hardware Development\MCUXpresso\11.0.1\workspace\speakEZ\libs\libarm_cortexM7lfsp_math.a(arm_common_tables.o)
twiddleCoef_2048_q31                              F:\Dropbox\Hardware Development\MCUXpresso\11.0.1\workspace\speakEZ\libs\libarm_cortexM7lfsp_math.a(arm_common_tables.o)
twiddleCoef_256                                   F:\Dropbox\Hardware Development\MCUXpresso\11.0.1\workspace\speakEZ\libs\libarm_cortexM7lfsp_math.a(arm_common_tables.o)
twiddleCoef_256_q15                               F:\Dropbox\Hardware Development\MCUXpresso\11.0.1\workspace\speakEZ\libs\libarm_cortexM7lfsp_math.a(arm_common_tables.o)
twiddleCoef_256_q31                               F:\Dropbox\Hardware Development\MCUXpresso\11.0.1\workspace\speakEZ\libs\libarm_cortexM7lfsp_math.a(arm_common_tables.o)
twiddleCoef_32                                    F:\Dropbox\Hardware Development\MCUXpresso\11.0.1\workspace\speakEZ\libs\libarm_cortexM7lfsp_math.a(arm_common_tables.o)
twiddleCoef_32_q15                                F:\Dropbox\Hardware Development\MCUXpresso\11.0.1\workspace\speakEZ\libs\libarm_cortexM7lfsp_math.a(arm_common_tables.o)
twiddleCoef_32_q31                                F:\Dropbox\Hardware Development\MCUXpresso\11.0.1\workspace\speakEZ\libs\libarm_cortexM7lfsp_math.a(arm_common_tables.o)
twiddleCoef_4096                                  F:\Dropbox\Hardware Development\MCUXpresso\11.0.1\workspace\speakEZ\libs\libarm_cortexM7lfsp_math.a(arm_common_tables.o)
twiddleCoef_4096_q15                              F:\Dropbox\Hardware Development\MCUXpresso\11.0.1\workspace\speakEZ\libs\libarm_cortexM7lfsp_math.a(arm_common_tables.o)
twiddleCoef_4096_q31                              F:\Dropbox\Hardware Development\MCUXpresso\11.0.1\workspace\speakEZ\libs\libarm_cortexM7lfsp_math.a(arm_common_tables.o)
twiddleCoef_512                                   F:\Dropbox\Hardware Development\MCUXpresso\11.0.1\workspace\speakEZ\libs\libarm_cortexM7lfsp_math.a(arm_common_tables.o)
twiddleCoef_512_q15                               F:\Dropbox\Hardware Development\MCUXpresso\11.0.1\workspace\speakEZ\libs\libarm_cortexM7lfsp_math.a(arm_common_tables.o)
twiddleCoef_512_q31                               F:\Dropbox\Hardware Development\MCUXpresso\11.0.1\workspace\speakEZ\libs\libarm_cortexM7lfsp_math.a(arm_common_tables.o)
twiddleCoef_64                                    F:\Dropbox\Hardware Development\MCUXpresso\11.0.1\workspace\speakEZ\libs\libarm_cortexM7lfsp_math.a(arm_common_tables.o)
twiddleCoef_64_q15                                F:\Dropbox\Hardware Development\MCUXpresso\11.0.1\workspace\speakEZ\libs\libarm_cortexM7lfsp_math.a(arm_common_tables.o)
twiddleCoef_64_q31                                F:\Dropbox\Hardware Development\MCUXpresso\11.0.1\workspace\speakEZ\libs\libarm_cortexM7lfsp_math.a(arm_common_tables.o)
twiddleCoef_rfft_1024                             F:\Dropbox\Hardware Development\MCUXpresso\11.0.1\workspace\speakEZ\libs\libarm_cortexM7lfsp_math.a(arm_common_tables.o)
twiddleCoef_rfft_128                              F:\Dropbox\Hardware Development\MCUXpresso\11.0.1\workspace\speakEZ\libs\libarm_cortexM7lfsp_math.a(arm_common_tables.o)
twiddleCoef_rfft_2048                             F:\Dropbox\Hardware Development\MCUXpresso\11.0.1\workspace\speakEZ\libs\libarm_cortexM7lfsp_math.a(arm_common_tables.o)
twiddleCoef_rfft_256                              F:\Dropbox\Hardware Development\MCUXpresso\11.0.1\workspace\speakEZ\libs\libarm_cortexM7lfsp_math.a(arm_common_tables.o)
twiddleCoef_rfft_32                               F:\Dropbox\Hardware Development\MCUXpresso\11.0.1\workspace\speakEZ\libs\libarm_cortexM7lfsp_math.a(arm_common_tables.o)
twiddleCoef_rfft_4096                             F:\Dropbox\Hardware Development\MCUXpresso\11.0.1\workspace\speakEZ\libs\libarm_cortexM7lfsp_math.a(arm_common_tables.o)
twiddleCoef_rfft_512                              F:\Dropbox\Hardware Development\MCUXpresso\11.0.1\workspace\speakEZ\libs\libarm_cortexM7lfsp_math.a(arm_common_tables.o)
twiddleCoef_rfft_64                               F:\Dropbox\Hardware Development\MCUXpresso\11.0.1\workspace\speakEZ\libs\libarm_cortexM7lfsp_math.a(arm_common_tables.o)
updatePitchbend                                   ./source/speakEZ.o
usb1PllConfig_BOARD_BootClockRUN                  ./board/clock_config.o
wavetableNovel                                    ./source/speakEZ.o
wavetableSaw                                      ./source/speakEZ.o
wavetableSine                                     ./source/speakEZ.o
wavetableTri                                      ./source/speakEZ.o
writeToWM8960                                     ./source/speakEZ.o
